(lp1
(lp2
(dp3
S'rankings'
p4
(lp5
I2
aI3
aI4
aI1
aI0
aI5
asS'quest_freeform'
p6
VIs it large?
p7
sS'ranked_choices'
p8
(lp9
I62
aI33
aI127
aI26
aI22
aI12
asS'question_answer_pairs'
p10
(lp11
sS'item'
p12
I310
sa(dp13
g4
(lp14
I4
aI1
aI2
aI5
aI3
aI0
asg6
VCan you buy it?
p15
sg8
(lp16
I38
aI149
aI196
aI56
aI163
aI98
asg10
(lp17
(lp18
I153
aF1
aa(lp19
I78
aF0.5
aasg12
I981
sa(dp20
g4
(lp21
I0
aI5
aI1
aI2
aI3
aI4
asg6
VIs it round?
p22
sg8
(lp23
I204
aI80
aI140
aI35
aI152
aI131
asg10
(lp24
(lp25
I78
aF1
aa(lp26
I154
aF1
aasg12
I302
sa(dp27
g4
(lp28
I4
aI1
aI2
aI0
aI3
aI5
asg6
VIs it alive?
p29
sg8
(lp30
I158
aI189
aI71
aI214
aI9
aI95
asg10
(lp31
(lp32
I148
aF1
aa(lp33
I82
aF0.5
aasg12
I161
sa(dp34
g4
(lp35
I5
aI2
aI1
aI4
aI3
aI0
asg6
VIs it alive?
p36
sg8
(lp37
I211
aI23
aI34
aI92
aI145
aI6
asg10
(lp38
(lp39
I148
aF0
aa(lp40
I205
aF-0.5
aasg12
I428
sa(dp41
g4
(lp42
I1
aI4
aI0
aI5
aI3
aI2
asg6
VIs it round?
p43
sg8
(lp44
I150
aI21
aI65
aI186
aI151
aI132
asg10
(lp45
(lp46
I207
aF1
aa(lp47
I82
aF1
aa(lp48
I216
aF1
aa(lp49
I181
aF1
aasg12
I564
sa(dp50
g4
(lp51
I4
aI5
aI0
aI3
aI1
aI2
asg6
VIs it alive?
p52
sg8
(lp53
I85
aI47
aI191
aI44
aI176
aI170
asg10
(lp54
(lp55
I181
aF-1
aa(lp56
I86
aF1
aa(lp57
I205
aF1
aa(lp58
I88
aF1
aasg12
I777
sa(dp59
g4
(lp60
I0
aI1
aI5
aI4
aI3
aI2
asg6
VIs it a house?
p61
sg8
(lp62
I192
aI39
aI165
aI64
aI90
aI96
asg10
(lp63
(lp64
I86
aF1
aa(lp65
I88
aF1
aa(lp66
I168
aF1
aa(lp67
I2
aF1
aasg12
I375
sa(dp68
g4
(lp69
I4
aI1
aI0
aI2
aI5
aI3
asg6
VDoes it live in the forest?
p70
sg8
(lp71
I129
aI164
aI29
aI135
aI100
aI17
asg10
(lp72
(lp73
I78
aF-1
aa(lp74
I75
aF1
aa(lp75
I0
aF1
aa(lp76
I134
aF1
aasg12
I362
sa(dp77
g4
(lp78
I3
aI2
aI4
aI1
aI5
aI0
asg6
VIs it black?
p79
sg8
(lp80
I159
aI193
aI139
aI200
aI102
aI16
asg10
(lp81
(lp82
I76
aF1
aa(lp83
I0
aF0
aa(lp84
I63
aF1
aa(lp85
I119
aF1
aa(lp86
I91
aF-1
aa(lp87
I134
aF1
aasg12
I285
sa(dp88
g4
(lp89
I4
aI1
aI0
aI5
aI2
aI3
asg6
VWhat color is it?
p90
sg8
(lp91
I146
aI123
aI103
aI212
aI87
aI3
asg10
(lp92
(lp93
I207
aF-0.5
aa(lp94
I78
aF-1
aa(lp95
I82
aF1
aa(lp96
I76
aF1
aa(lp97
I75
aF1
aa(lp98
I69
aF0.5
aasg12
I703
sa(dp99
g4
(lp100
I4
aI3
aI5
aI0
aI2
aI1
asg6
VDoes it eat?
p101
sg8
(lp102
I197
aI187
aI41
aI177
aI57
aI206
asg10
(lp103
(lp104
I82
aF1
aa(lp105
I207
aF1
aa(lp106
I205
aF-1
aa(lp107
I216
aF1
aa(lp108
I78
aF-1
aa(lp109
I181
aF1
aasg12
I922
sa(dp110
g4
(lp111
I4
aI1
aI5
aI3
aI2
aI0
asg6
VIs it expensive?
p112
sg8
(lp113
I116
aI67
aI72
aI112
aI68
aI107
asg10
(lp114
(lp115
I78
aF0
aa(lp116
I153
aF-1
aa(lp117
I216
aF1
aa(lp118
I168
aF1
aa(lp119
I63
aF0.5
aa(lp120
I143
aF1
aasg12
I13
saa(lp121
(dp122
g4
(lp123
I5
aI0
aI1
aI4
aI3
aI2
asg6
VIs it an animal?
p124
sg8
(lp125
I62
aI33
aI127
aI26
aI22
aI12
asg10
(lp126
sg12
I310
sa(dp127
g4
(lp128
I4
aI0
aI3
aI1
aI2
aI5
asg6
VIs it a tool?
p129
sg8
(lp130
I38
aI149
aI196
aI56
aI163
aI98
asg10
(lp131
(lp132
I153
aF1
aa(lp133
I78
aF0.5
aasg12
I981
sa(dp134
g4
(lp135
I4
aI3
aI2
aI1
aI0
aI5
asg6
VDo you use it to strike things with?
p136
sg8
(lp137
I204
aI80
aI140
aI35
aI152
aI131
asg10
(lp138
(lp139
I78
aF1
aa(lp140
I154
aF1
aasg12
I302
sa(dp141
g4
(lp142
I4
aI0
aI2
aI1
aI5
aI3
asg6
VCan you buy it?
p143
sg8
(lp144
I158
aI189
aI71
aI214
aI9
aI95
asg10
(lp145
(lp146
I148
aF1
aa(lp147
I82
aF0.5
aasg12
I161
sa(dp148
g4
(lp149
I3
aI0
aI5
aI4
aI1
aI2
asg6
VIs it a machine?
p150
sg8
(lp151
I211
aI23
aI34
aI92
aI145
aI6
asg10
(lp152
(lp153
I148
aF0
aa(lp154
I205
aF-0.5
aasg12
I428
sa(dp155
g4
(lp156
I5
aI4
aI0
aI1
aI3
aI2
asg6
VDoes it have 4 legs?
p157
sg8
(lp158
I150
aI21
aI65
aI186
aI151
aI132
asg10
(lp159
(lp160
I207
aF1
aa(lp161
I82
aF1
aa(lp162
I216
aF1
aa(lp163
I181
aF1
aasg12
I564
sa(dp164
g4
(lp165
I2
aI1
aI4
aI5
aI0
aI3
asg6
VIs it bigger than a building?
p166
sg8
(lp167
I85
aI47
aI191
aI44
aI176
aI170
asg10
(lp168
(lp169
I181
aF-1
aa(lp170
I86
aF1
aa(lp171
I205
aF1
aa(lp172
I88
aF1
aasg12
I777
sa(dp173
g4
(lp174
I1
aI3
aI0
aI2
aI4
aI5
asg6
VDo a lot of people go there?
p175
sg8
(lp176
I192
aI39
aI165
aI64
aI90
aI96
asg10
(lp177
(lp178
I86
aF1
aa(lp179
I88
aF1
aa(lp180
I168
aF1
aa(lp181
I2
aF1
aasg12
I375
sa(dp182
g4
(lp183
I0
aI3
aI4
aI2
aI1
aI5
asg6
VIs it a pet?
p184
sg8
(lp185
I129
aI164
aI29
aI135
aI100
aI17
asg10
(lp186
(lp187
I78
aF-1
aa(lp188
I75
aF1
aa(lp189
I0
aF1
aa(lp190
I134
aF1
aasg12
I362
sa(dp191
g4
(lp192
I3
aI1
aI4
aI2
aI0
aI5
asg6
VCan you hold it in your hand?
p193
sg8
(lp194
I159
aI193
aI139
aI200
aI102
aI16
asg10
(lp195
(lp196
I76
aF1
aa(lp197
I0
aF0
aa(lp198
I63
aF1
aa(lp199
I119
aF1
aa(lp200
I91
aF-1
aa(lp201
I134
aF1
aasg12
I285
sa(dp202
g4
(lp203
I1
aI3
aI2
aI4
aI0
aI5
asg6
VDoes it swim?
p204
sg8
(lp205
I146
aI123
aI103
aI212
aI87
aI3
asg10
(lp206
(lp207
I207
aF-0.5
aa(lp208
I78
aF-1
aa(lp209
I82
aF1
aa(lp210
I76
aF1
aa(lp211
I75
aF1
aa(lp212
I69
aF0.5
aasg12
I703
sa(dp213
g4
(lp214
I0
aI5
aI1
aI3
aI2
aI4
asg6
VIs it alive?
p215
sg8
(lp216
I197
aI187
aI41
aI177
aI57
aI206
asg10
(lp217
(lp218
I82
aF1
aa(lp219
I207
aF1
aa(lp220
I205
aF-1
aa(lp221
I216
aF1
aa(lp222
I78
aF-1
aa(lp223
I181
aF1
aasg12
I922
sa(dp224
g4
(lp225
I0
aI3
aI4
aI1
aI2
aI5
asg6
VDoes it come in different shapes?
p226
sg8
(lp227
I116
aI67
aI72
aI112
aI68
aI107
asg10
(lp228
(lp229
I78
aF0
aa(lp230
I153
aF-1
aa(lp231
I216
aF1
aa(lp232
I168
aF1
aa(lp233
I63
aF0.5
aa(lp234
I143
aF1
aasg12
I13
saa(lp235
(dp236
g4
(lp237
I0
aI5
aI2
aI4
aI3
aI1
asg6
Vit is easliy moveable 
p238
sg8
(lp239
I62
aI33
aI127
aI26
aI22
aI12
asg10
(lp240
sg12
I310
sa(dp241
g4
(lp242
I2
aI1
aI4
aI3
aI5
aI0
asg6
Vdoes it have moving parts
p243
sg8
(lp244
I38
aI149
aI196
aI56
aI163
aI98
asg10
(lp245
(lp246
I153
aF1
aa(lp247
I78
aF0.5
aasg12
I981
sa(dp248
g4
(lp249
I2
aI3
aI1
aI4
aI5
aI0
asg6
Vcan it cut something
p250
sg8
(lp251
I204
aI80
aI140
aI35
aI152
aI131
asg10
(lp252
(lp253
I78
aF1
aa(lp254
I154
aF1
aasg12
I302
sa(dp255
g4
(lp256
I4
aI2
aI1
aI5
aI3
aI0
asg6
Vis it bigger then a breadbox
p257
sg8
(lp258
I158
aI189
aI71
aI214
aI9
aI95
asg10
(lp259
(lp260
I148
aF1
aa(lp261
I82
aF0.5
aasg12
I161
sa(dp262
g4
(lp263
I5
aI3
aI1
aI2
aI4
aI0
asg6
Vis it alive
p264
sg8
(lp265
I211
aI23
aI34
aI92
aI145
aI6
asg10
(lp266
(lp267
I148
aF0
aa(lp268
I205
aF-0.5
aasg12
I428
sa(dp269
g4
(lp270
I2
aI3
aI1
aI4
aI0
aI5
asg6
Vis it edible 
p271
sg8
(lp272
I150
aI21
aI65
aI186
aI151
aI132
asg10
(lp273
(lp274
I207
aF1
aa(lp275
I82
aF1
aa(lp276
I216
aF1
aa(lp277
I181
aF1
aasg12
I564
sa(dp278
g4
(lp279
I2
aI3
aI1
aI4
aI5
aI0
asg6
VCan you go inside it
p280
sg8
(lp281
I85
aI47
aI191
aI44
aI176
aI170
asg10
(lp282
(lp283
I181
aF-1
aa(lp284
I86
aF1
aa(lp285
I205
aF1
aa(lp286
I88
aF1
aasg12
I777
sa(dp287
g4
(lp288
I1
aI0
aI2
aI3
aI4
aI5
asg6
VDo you live in it
p289
sg8
(lp290
I192
aI39
aI165
aI64
aI90
aI96
asg10
(lp291
(lp292
I86
aF1
aa(lp293
I88
aF1
aa(lp294
I168
aF1
aa(lp295
I2
aF1
aasg12
I375
sa(dp296
g4
(lp297
I0
aI3
aI4
aI1
aI2
aI5
asg6
VDoes it have fur
p298
sg8
(lp299
I129
aI164
aI29
aI135
aI100
aI17
asg10
(lp300
(lp301
I78
aF-1
aa(lp302
I75
aF1
aa(lp303
I0
aF1
aa(lp304
I134
aF1
aasg12
I362
sa(dp305
g4
(lp306
I3
aI1
aI2
aI0
aI4
aI5
asg6
VDoes it have feet
p307
sg8
(lp308
I159
aI193
aI139
aI200
aI102
aI16
asg10
(lp309
(lp310
I76
aF1
aa(lp311
I0
aF0
aa(lp312
I63
aF1
aa(lp313
I119
aF1
aa(lp314
I91
aF-1
aa(lp315
I134
aF1
aasg12
I285
sa(dp316
g4
(lp317
I2
aI3
aI4
aI0
aI1
aI5
asg6
Vis it a mammal
p318
sg8
(lp319
I146
aI123
aI103
aI212
aI87
aI3
asg10
(lp320
(lp321
I207
aF-0.5
aa(lp322
I78
aF-1
aa(lp323
I82
aF1
aa(lp324
I76
aF1
aa(lp325
I75
aF1
aa(lp326
I69
aF0.5
aasg12
I703
sa(dp327
g4
(lp328
I0
aI5
aI2
aI3
aI4
aI1
asg6
Vcan you live in it
p329
sg8
(lp330
I197
aI187
aI41
aI177
aI57
aI206
asg10
(lp331
(lp332
I82
aF1
aa(lp333
I207
aF1
aa(lp334
I205
aF-1
aa(lp335
I216
aF1
aa(lp336
I78
aF-1
aa(lp337
I181
aF1
aasg12
I922
sa(dp338
g4
(lp339
I3
aI1
aI4
aI0
aI2
aI5
asg6
VDoes it cast a shadow
p340
sg8
(lp341
I116
aI67
aI72
aI112
aI68
aI107
asg10
(lp342
(lp343
I78
aF0
aa(lp344
I153
aF-1
aa(lp345
I216
aF1
aa(lp346
I168
aF1
aa(lp347
I63
aF0.5
aa(lp348
I143
aF1
aasg12
I13
saa(lp349
(dp350
g4
(lp351
I0
aI4
aI2
aI1
aI3
aI5
asg6
VIs it alive?
p352
sg8
(lp353
I62
aI33
aI127
aI26
aI22
aI12
asg10
(lp354
sg12
I310
sa(dp355
g4
(lp356
I1
aI3
aI4
aI2
aI0
aI5
asg6
VIs it a phone?
p357
sg8
(lp358
I38
aI149
aI196
aI56
aI163
aI98
asg10
(lp359
(lp360
I153
aF1
aa(lp361
I78
aF0.5
aasg12
I981
sa(dp362
g4
(lp363
I3
aI5
aI1
aI4
aI2
aI0
asg6
VIs it perfect shape?
p364
sg8
(lp365
I204
aI80
aI140
aI35
aI152
aI131
asg10
(lp366
(lp367
I78
aF1
aa(lp368
I154
aF1
aasg12
I302
sa(dp369
g4
(lp370
I0
aI4
aI2
aI3
aI5
aI1
asg6
VHow big is it?
p371
sg8
(lp372
I158
aI189
aI71
aI214
aI9
aI95
asg10
(lp373
(lp374
I148
aF1
aa(lp375
I82
aF0.5
aasg12
I161
sa(dp376
g4
(lp377
I0
aI3
aI5
aI1
aI4
aI2
asg6
VIs it alive?
p378
sg8
(lp379
I211
aI23
aI34
aI92
aI145
aI6
asg10
(lp380
(lp381
I148
aF0
aa(lp382
I205
aF-0.5
aasg12
I428
sa(dp383
g4
(lp384
I1
aI2
aI0
aI3
aI5
aI4
asg6
VCan you move on it?
p385
sg8
(lp386
I150
aI21
aI65
aI186
aI151
aI132
asg10
(lp387
(lp388
I207
aF1
aa(lp389
I82
aF1
aa(lp390
I216
aF1
aa(lp391
I181
aF1
aasg12
I564
sa(dp392
g4
(lp393
I1
aI4
aI2
aI3
aI0
aI5
asg6
VIs it a celebrity?
p394
sg8
(lp395
I85
aI47
aI191
aI44
aI176
aI170
asg10
(lp396
(lp397
I181
aF-1
aa(lp398
I86
aF1
aa(lp399
I205
aF1
aa(lp400
I88
aF1
aasg12
I777
sa(dp401
g4
(lp402
I1
aI0
aI5
aI4
aI2
aI3
asg6
VIs it a skyscraper?
p403
sg8
(lp404
I192
aI39
aI165
aI64
aI90
aI96
asg10
(lp405
(lp406
I86
aF1
aa(lp407
I88
aF1
aa(lp408
I168
aF1
aa(lp409
I2
aF1
aasg12
I375
sa(dp410
g4
(lp411
I0
aI3
aI1
aI4
aI2
aI5
asg6
VDoes it have a lot of hairs?
p412
sg8
(lp413
I129
aI164
aI29
aI135
aI100
aI17
asg10
(lp414
(lp415
I78
aF-1
aa(lp416
I75
aF1
aa(lp417
I0
aF1
aa(lp418
I134
aF1
aasg12
I362
sa(dp419
g4
(lp420
I3
aI4
aI1
aI2
aI0
aI5
asg6
VIs it bigger than human?
p421
sg8
(lp422
I159
aI193
aI139
aI200
aI102
aI16
asg10
(lp423
(lp424
I76
aF1
aa(lp425
I0
aF0
aa(lp426
I63
aF1
aa(lp427
I119
aF1
aa(lp428
I91
aF-1
aa(lp429
I134
aF1
aasg12
I285
sa(dp430
g4
(lp431
I3
aI4
aI0
aI1
aI5
aI2
asg6
VDoes it swim?
p432
sg8
(lp433
I146
aI123
aI103
aI212
aI87
aI3
asg10
(lp434
(lp435
I207
aF-0.5
aa(lp436
I78
aF-1
aa(lp437
I82
aF1
aa(lp438
I76
aF1
aa(lp439
I75
aF1
aa(lp440
I69
aF0.5
aasg12
I703
sa(dp441
g4
(lp442
I4
aI0
aI2
aI3
aI1
aI5
asg6
VIs it black?
p443
sg8
(lp444
I197
aI187
aI41
aI177
aI57
aI206
asg10
(lp445
(lp446
I82
aF1
aa(lp447
I207
aF1
aa(lp448
I205
aF-1
aa(lp449
I216
aF1
aa(lp450
I78
aF-1
aa(lp451
I181
aF1
aasg12
I922
sa(dp452
g4
(lp453
I4
aI0
aI2
aI3
aI1
aI5
asg6
VCan you freeze to death?
p454
sg8
(lp455
I116
aI67
aI72
aI112
aI68
aI107
asg10
(lp456
(lp457
I78
aF0
aa(lp458
I153
aF-1
aa(lp459
I216
aF1
aa(lp460
I168
aF1
aa(lp461
I63
aF0.5
aa(lp462
I143
aF1
aasg12
I13
saa(lp463
(dp464
g4
(lp465
I0
aI5
aI2
aI3
aI1
aI4
asg6
Vis it or has it been alive?
p466
sg8
(lp467
I62
aI33
aI127
aI26
aI22
aI12
asg10
(lp468
sg12
I310
sa(dp469
g4
(lp470
I1
aI0
aI3
aI2
aI4
aI5
asg6
Vis it plastic?
p471
sg8
(lp472
I38
aI149
aI196
aI56
aI163
aI98
asg10
(lp473
(lp474
I153
aF1
aa(lp475
I78
aF0.5
aasg12
I981
sa(dp476
g4
(lp477
I1
aI2
aI3
aI4
aI0
aI5
asg6
Vis it a tool?
p478
sg8
(lp479
I204
aI80
aI140
aI35
aI152
aI131
asg10
(lp480
(lp481
I78
aF1
aa(lp482
I154
aF1
aasg12
I302
sa(dp483
g4
(lp484
I4
aI1
aI2
aI0
aI3
aI5
asg6
Vis it electronic?
p485
sg8
(lp486
I158
aI189
aI71
aI214
aI9
aI95
asg10
(lp487
(lp488
I148
aF1
aa(lp489
I82
aF0.5
aasg12
I161
sa(dp490
g4
(lp491
I3
aI1
aI4
aI2
aI0
aI5
asg6
Vis it alive
p492
sg8
(lp493
I211
aI23
aI34
aI92
aI145
aI6
asg10
(lp494
(lp495
I148
aF0
aa(lp496
I205
aF-0.5
aasg12
I428
sa(dp497
g4
(lp498
I5
aI4
aI3
aI1
aI0
aI2
asg6
Vis it alive?
p499
sg8
(lp500
I150
aI21
aI65
aI186
aI151
aI132
asg10
(lp501
(lp502
I207
aF1
aa(lp503
I82
aF1
aa(lp504
I216
aF1
aa(lp505
I181
aF1
aasg12
I564
sa(dp506
g4
(lp507
I1
aI3
aI2
aI4
aI5
aI0
asg6
Vis it alive
p508
sg8
(lp509
I85
aI47
aI191
aI44
aI176
aI170
asg10
(lp510
(lp511
I181
aF-1
aa(lp512
I86
aF1
aa(lp513
I205
aF1
aa(lp514
I88
aF1
aasg12
I777
sa(dp515
g4
(lp516
I1
aI3
aI0
aI2
aI4
aI5
asg6
Vis it a place of employment?
p517
sg8
(lp518
I192
aI39
aI165
aI64
aI90
aI96
asg10
(lp519
(lp520
I86
aF1
aa(lp521
I88
aF1
aa(lp522
I168
aF1
aa(lp523
I2
aF1
aasg12
I375
sa(dp524
g4
(lp525
I3
aI0
aI2
aI1
aI4
aI5
asg6
Vis it a pet?
p526
sg8
(lp527
I129
aI164
aI29
aI135
aI100
aI17
asg10
(lp528
(lp529
I78
aF-1
aa(lp530
I75
aF1
aa(lp531
I0
aF1
aa(lp532
I134
aF1
aasg12
I362
sa(dp533
g4
(lp534
I3
aI1
aI2
aI4
aI0
aI5
asg6
Vis it a carnivore?
p535
sg8
(lp536
I159
aI193
aI139
aI200
aI102
aI16
asg10
(lp537
(lp538
I76
aF1
aa(lp539
I0
aF0
aa(lp540
I63
aF1
aa(lp541
I119
aF1
aa(lp542
I91
aF-1
aa(lp543
I134
aF1
aasg12
I285
sa(dp544
g4
(lp545
I4
aI1
aI3
aI2
aI0
aI5
asg6
Vis it microscopic?
p546
sg8
(lp547
I146
aI123
aI103
aI212
aI87
aI3
asg10
(lp548
(lp549
I207
aF-0.5
aa(lp550
I78
aF-1
aa(lp551
I82
aF1
aa(lp552
I76
aF1
aa(lp553
I75
aF1
aa(lp554
I69
aF0.5
aasg12
I703
sa(dp555
g4
(lp556
I2
aI0
aI3
aI4
aI1
aI5
asg6
Vis it a mammal?
p557
sg8
(lp558
I197
aI187
aI41
aI177
aI57
aI206
asg10
(lp559
(lp560
I82
aF1
aa(lp561
I207
aF1
aa(lp562
I205
aF-1
aa(lp563
I216
aF1
aa(lp564
I78
aF-1
aa(lp565
I181
aF1
aasg12
I922
sa(dp566
g4
(lp567
I1
aI3
aI2
aI4
aI0
aI5
asg6
Vis it a building
p568
sg8
(lp569
I116
aI67
aI72
aI112
aI68
aI107
asg10
(lp570
(lp571
I78
aF0
aa(lp572
I153
aF-1
aa(lp573
I216
aF1
aa(lp574
I168
aF1
aa(lp575
I63
aF0.5
aa(lp576
I143
aF1
aasg12
I13
saa(lp577
(dp578
g4
(lp579
I0
aI5
aI1
aI3
aI2
aI4
asg6
Vis it alive?
p580
sg8
(lp581
I62
aI33
aI127
aI26
aI22
aI12
asg10
(lp582
sg12
I310
sa(dp583
g4
(lp584
I2
aI0
aI1
aI3
aI5
aI4
asg6
Vis it for females
p585
sg8
(lp586
I38
aI149
aI196
aI56
aI163
aI98
asg10
(lp587
(lp588
I153
aF1
aa(lp589
I78
aF0.5
aasg12
I981
sa(dp590
g4
(lp591
I1
aI2
aI3
aI4
aI5
aI0
asg6
Vis it fun?
p592
sg8
(lp593
I204
aI80
aI140
aI35
aI152
aI131
asg10
(lp594
(lp595
I78
aF1
aa(lp596
I154
aF1
aasg12
I302
sa(dp597
g4
(lp598
I4
aI0
aI1
aI2
aI5
aI3
asg6
Vcan you wear it?
p599
sg8
(lp600
I158
aI189
aI71
aI214
aI9
aI95
asg10
(lp601
(lp602
I148
aF1
aa(lp603
I82
aF0.5
aasg12
I161
sa(dp604
g4
(lp605
I3
aI0
aI1
aI5
aI2
aI4
asg6
Vis it alive
p606
sg8
(lp607
I211
aI23
aI34
aI92
aI145
aI6
asg10
(lp608
(lp609
I148
aF0
aa(lp610
I205
aF-0.5
aasg12
I428
sa(dp611
g4
(lp612
I4
aI1
aI5
aI0
aI3
aI2
asg6
VIs it green?
p613
sg8
(lp614
I150
aI21
aI65
aI186
aI151
aI132
asg10
(lp615
(lp616
I207
aF1
aa(lp617
I82
aF1
aa(lp618
I216
aF1
aa(lp619
I181
aF1
aasg12
I564
sa(dp620
g4
(lp621
I2
aI3
aI1
aI5
aI4
aI0
asg6
Vcan you buy it?
p622
sg8
(lp623
I85
aI47
aI191
aI44
aI176
aI170
asg10
(lp624
(lp625
I181
aF-1
aa(lp626
I86
aF1
aa(lp627
I205
aF1
aa(lp628
I88
aF1
aasg12
I777
sa(dp629
g4
(lp630
I1
aI4
aI2
aI3
aI0
aI5
asg6
Vcan you buy it?
p631
sg8
(lp632
I192
aI39
aI165
aI64
aI90
aI96
asg10
(lp633
(lp634
I86
aF1
aa(lp635
I88
aF1
aa(lp636
I168
aF1
aa(lp637
I2
aF1
aasg12
I375
sa(dp638
g4
(lp639
I0
aI3
aI2
aI4
aI1
aI5
asg6
Vis it small?
p640
sg8
(lp641
I129
aI164
aI29
aI135
aI100
aI17
asg10
(lp642
(lp643
I78
aF-1
aa(lp644
I75
aF1
aa(lp645
I0
aF1
aa(lp646
I134
aF1
aasg12
I362
sa(dp647
g4
(lp648
I3
aI2
aI4
aI1
aI0
aI5
asg6
Vcan you hold it in one hand
p649
sg8
(lp650
I159
aI193
aI139
aI200
aI102
aI16
asg10
(lp651
(lp652
I76
aF1
aa(lp653
I0
aF0
aa(lp654
I63
aF1
aa(lp655
I119
aF1
aa(lp656
I91
aF-1
aa(lp657
I134
aF1
aasg12
I285
sa(dp658
g4
(lp659
I4
aI2
aI3
aI1
aI0
aI5
asg6
Vcan you hold it in one hand?
p660
sg8
(lp661
I146
aI123
aI103
aI212
aI87
aI3
asg10
(lp662
(lp663
I207
aF-0.5
aa(lp664
I78
aF-1
aa(lp665
I82
aF1
aa(lp666
I76
aF1
aa(lp667
I75
aF1
aa(lp668
I69
aF0.5
aasg12
I703
sa(dp669
g4
(lp670
I3
aI1
aI0
aI2
aI4
aI5
asg6
Vcan you hold it with one hand?
p671
sg8
(lp672
I197
aI187
aI41
aI177
aI57
aI206
asg10
(lp673
(lp674
I82
aF1
aa(lp675
I207
aF1
aa(lp676
I205
aF-1
aa(lp677
I216
aF1
aa(lp678
I78
aF-1
aa(lp679
I181
aF1
aasg12
I922
sa(dp680
g4
(lp681
I1
aI4
aI2
aI3
aI0
aI5
asg6
Vis it cloth?
p682
sg8
(lp683
I116
aI67
aI72
aI112
aI68
aI107
asg10
(lp684
(lp685
I78
aF0
aa(lp686
I153
aF-1
aa(lp687
I216
aF1
aa(lp688
I168
aF1
aa(lp689
I63
aF0.5
aa(lp690
I143
aF1
aasg12
I13
saa(lp691
(dp692
g4
(lp693
I1
aI3
aI4
aI0
aI2
aI5
asg6
VIs it alive?
p694
sg8
(lp695
I62
aI33
aI127
aI26
aI22
aI12
asg10
(lp696
sg12
I310
sa(dp697
g4
(lp698
I2
aI3
aI4
aI0
aI1
aI5
asg6
VIs it alive?
p699
sg8
(lp700
I38
aI149
aI196
aI56
aI163
aI98
asg10
(lp701
(lp702
I153
aF1
aa(lp703
I78
aF0.5
aasg12
I981
sa(dp704
g4
(lp705
I2
aI3
aI1
aI0
aI5
aI4
asg6
VIs it large?
p706
sg8
(lp707
I204
aI80
aI140
aI35
aI152
aI131
asg10
(lp708
(lp709
I78
aF1
aa(lp710
I154
aF1
aasg12
I302
sa(dp711
g4
(lp712
I0
aI4
aI1
aI2
aI5
aI3
asg6
VIs it alive?
p713
sg8
(lp714
I158
aI189
aI71
aI214
aI9
aI95
asg10
(lp715
(lp716
I148
aF1
aa(lp717
I82
aF0.5
aasg12
I161
sa(dp718
g4
(lp719
I4
aI5
aI0
aI1
aI3
aI2
asg6
VIs it alive?
p720
sg8
(lp721
I211
aI23
aI34
aI92
aI145
aI6
asg10
(lp722
(lp723
I148
aF0
aa(lp724
I205
aF-0.5
aasg12
I428
sa(dp725
g4
(lp726
I5
aI0
aI1
aI4
aI2
aI3
asg6
VIs it alive?
p727
sg8
(lp728
I150
aI21
aI65
aI186
aI151
aI132
asg10
(lp729
(lp730
I207
aF1
aa(lp731
I82
aF1
aa(lp732
I216
aF1
aa(lp733
I181
aF1
aasg12
I564
sa(dp734
g4
(lp735
I5
aI0
aI4
aI2
aI3
aI1
asg6
VIs it alive?
p736
sg8
(lp737
I85
aI47
aI191
aI44
aI176
aI170
asg10
(lp738
(lp739
I181
aF-1
aa(lp740
I86
aF1
aa(lp741
I205
aF1
aa(lp742
I88
aF1
aasg12
I777
sa(dp743
g4
(lp744
I1
aI4
aI2
aI3
aI5
aI0
asg6
VIt it made of steel?
p745
sg8
(lp746
I192
aI39
aI165
aI64
aI90
aI96
asg10
(lp747
(lp748
I86
aF1
aa(lp749
I88
aF1
aa(lp750
I168
aF1
aa(lp751
I2
aF1
aasg12
I375
sa(dp752
g4
(lp753
I0
aI3
aI4
aI2
aI1
aI5
asg6
VCan it live in water?
p754
sg8
(lp755
I129
aI164
aI29
aI135
aI100
aI17
asg10
(lp756
(lp757
I78
aF-1
aa(lp758
I75
aF1
aa(lp759
I0
aF1
aa(lp760
I134
aF1
aasg12
I362
sa(dp761
g4
(lp762
I3
aI1
aI2
aI4
aI0
aI5
asg6
VDoes it have four legs?
p763
sg8
(lp764
I159
aI193
aI139
aI200
aI102
aI16
asg10
(lp765
(lp766
I76
aF1
aa(lp767
I0
aF0
aa(lp768
I63
aF1
aa(lp769
I119
aF1
aa(lp770
I91
aF-1
aa(lp771
I134
aF1
aasg12
I285
sa(dp772
g4
(lp773
I4
aI1
aI3
aI2
aI0
aI5
asg6
VDoes it have gills?
p774
sg8
(lp775
I146
aI123
aI103
aI212
aI87
aI3
asg10
(lp776
(lp777
I207
aF-0.5
aa(lp778
I78
aF-1
aa(lp779
I82
aF1
aa(lp780
I76
aF1
aa(lp781
I75
aF1
aa(lp782
I69
aF0.5
aasg12
I703
sa(dp783
g4
(lp784
I0
aI2
aI4
aI1
aI5
aI3
asg6
VIs it large?
p785
sg8
(lp786
I197
aI187
aI41
aI177
aI57
aI206
asg10
(lp787
(lp788
I82
aF1
aa(lp789
I207
aF1
aa(lp790
I205
aF-1
aa(lp791
I216
aF1
aa(lp792
I78
aF-1
aa(lp793
I181
aF1
aasg12
I922
sa(dp794
g4
(lp795
I0
aI1
aI3
aI2
aI4
aI5
asg6
VIs it alive?
p796
sg8
(lp797
I116
aI67
aI72
aI112
aI68
aI107
asg10
(lp798
(lp799
I78
aF0
aa(lp800
I153
aF-1
aa(lp801
I216
aF1
aa(lp802
I168
aF1
aa(lp803
I63
aF0.5
aa(lp804
I143
aF1
aasg12
I13
saa(lp805
(dp806
g4
(lp807
I2
aI3
aI1
aI5
aI0
aI4
asg6
VIs it alive?
p808
sg8
(lp809
I62
aI33
aI127
aI26
aI22
aI12
asg10
(lp810
sg12
I310
sa(dp811
g4
(lp812
I2
aI0
aI1
aI4
aI3
aI5
asg6
Vis it a tool
p813
sg8
(lp814
I38
aI149
aI196
aI56
aI163
aI98
asg10
(lp815
(lp816
I153
aF1
aa(lp817
I78
aF0.5
aasg12
I981
sa(dp818
g4
(lp819
I3
aI2
aI1
aI0
aI5
aI4
asg6
VIs it the size of a drill?
p820
sg8
(lp821
I204
aI80
aI140
aI35
aI152
aI131
asg10
(lp822
(lp823
I78
aF1
aa(lp824
I154
aF1
aasg12
I302
sa(dp825
g4
(lp826
I4
aI0
aI1
aI2
aI5
aI3
asg6
VIs it alive?
p827
sg8
(lp828
I158
aI189
aI71
aI214
aI9
aI95
asg10
(lp829
(lp830
I148
aF1
aa(lp831
I82
aF0.5
aasg12
I161
sa(dp832
g4
(lp833
I3
aI4
aI0
aI1
aI2
aI5
asg6
VIs it usually inside
p834
sg8
(lp835
I211
aI23
aI34
aI92
aI145
aI6
asg10
(lp836
(lp837
I148
aF0
aa(lp838
I205
aF-0.5
aasg12
I428
sa(dp839
g4
(lp840
I3
aI5
aI4
aI0
aI1
aI2
asg6
VDoes it have paws
p841
sg8
(lp842
I150
aI21
aI65
aI186
aI151
aI132
asg10
(lp843
(lp844
I207
aF1
aa(lp845
I82
aF1
aa(lp846
I216
aF1
aa(lp847
I181
aF1
aasg12
I564
sa(dp848
g4
(lp849
I2
aI1
aI3
aI4
aI5
aI0
asg6
Vis it alive
p850
sg8
(lp851
I85
aI47
aI191
aI44
aI176
aI170
asg10
(lp852
(lp853
I181
aF-1
aa(lp854
I86
aF1
aa(lp855
I205
aF1
aa(lp856
I88
aF1
aasg12
I777
sa(dp857
g4
(lp858
I1
aI3
aI0
aI4
aI2
aI5
asg6
VIs it a place to live?
p859
sg8
(lp860
I192
aI39
aI165
aI64
aI90
aI96
asg10
(lp861
(lp862
I86
aF1
aa(lp863
I88
aF1
aa(lp864
I168
aF1
aa(lp865
I2
aF1
aasg12
I375
sa(dp866
g4
(lp867
I0
aI3
aI4
aI1
aI2
aI5
asg6
VDoes it have feathers
p868
sg8
(lp869
I129
aI164
aI29
aI135
aI100
aI17
asg10
(lp870
(lp871
I78
aF-1
aa(lp872
I75
aF1
aa(lp873
I0
aF1
aa(lp874
I134
aF1
aasg12
I362
sa(dp875
g4
(lp876
I1
aI2
aI4
aI0
aI5
aI3
asg6
VIs it a person?
p877
sg8
(lp878
I159
aI193
aI139
aI200
aI102
aI16
asg10
(lp879
(lp880
I76
aF1
aa(lp881
I0
aF0
aa(lp882
I63
aF1
aa(lp883
I119
aF1
aa(lp884
I91
aF-1
aa(lp885
I134
aF1
aasg12
I285
sa(dp886
g4
(lp887
I2
aI3
aI1
aI0
aI5
aI4
asg6
VIs it a turtle
p888
sg8
(lp889
I146
aI123
aI103
aI212
aI87
aI3
asg10
(lp890
(lp891
I207
aF-0.5
aa(lp892
I78
aF-1
aa(lp893
I82
aF1
aa(lp894
I76
aF1
aa(lp895
I75
aF1
aa(lp896
I69
aF0.5
aasg12
I703
sa(dp897
g4
(lp898
I2
aI1
aI0
aI4
aI3
aI5
asg6
Vis it a cat
p899
sg8
(lp900
I197
aI187
aI41
aI177
aI57
aI206
asg10
(lp901
(lp902
I82
aF1
aa(lp903
I207
aF1
aa(lp904
I205
aF-1
aa(lp905
I216
aF1
aa(lp906
I78
aF-1
aa(lp907
I181
aF1
aasg12
I922
sa(dp908
g4
(lp909
I4
aI1
aI2
aI0
aI3
aI5
asg6
VIs a house
p910
sg8
(lp911
I116
aI67
aI72
aI112
aI68
aI107
asg10
(lp912
(lp913
I78
aF0
aa(lp914
I153
aF-1
aa(lp915
I216
aF1
aa(lp916
I168
aF1
aa(lp917
I63
aF0.5
aa(lp918
I143
aF1
aasg12
I13
saa(lp919
(dp920
g4
(lp921
I5
aI0
aI2
aI4
aI3
aI1
asg6
VIs it alive?
p922
sg8
(lp923
I62
aI33
aI127
aI26
aI22
aI12
asg10
(lp924
sg12
I310
sa(dp925
g4
(lp926
I2
aI1
aI0
aI3
aI5
aI4
asg6
VDo you use it inside?
p927
sg8
(lp928
I38
aI149
aI196
aI56
aI163
aI98
asg10
(lp929
(lp930
I153
aF1
aa(lp931
I78
aF0.5
aasg12
I981
sa(dp932
g4
(lp933
I2
aI3
aI4
aI1
aI0
aI5
asg6
VIs it sharp?
p934
sg8
(lp935
I204
aI80
aI140
aI35
aI152
aI131
asg10
(lp936
(lp937
I78
aF1
aa(lp938
I154
aF1
aasg12
I302
sa(dp939
g4
(lp940
I4
aI1
aI5
aI2
aI0
aI3
asg6
VIs it something you wear?
p941
sg8
(lp942
I158
aI189
aI71
aI214
aI9
aI95
asg10
(lp943
(lp944
I148
aF1
aa(lp945
I82
aF0.5
aasg12
I161
sa(dp946
g4
(lp947
I3
aI5
aI4
aI0
aI1
aI2
asg6
VIs it an animal?
p948
sg8
(lp949
I211
aI23
aI34
aI92
aI145
aI6
asg10
(lp950
(lp951
I148
aF0
aa(lp952
I205
aF-0.5
aasg12
I428
sa(dp953
g4
(lp954
I2
aI3
aI4
aI1
aI5
aI0
asg6
VIs it alive?
p955
sg8
(lp956
I150
aI21
aI65
aI186
aI151
aI132
asg10
(lp957
(lp958
I207
aF1
aa(lp959
I82
aF1
aa(lp960
I216
aF1
aa(lp961
I181
aF1
aasg12
I564
sa(dp962
g4
(lp963
I2
aI1
aI3
aI4
aI0
aI5
asg6
VDo people go inside of it?
p964
sg8
(lp965
I85
aI47
aI191
aI44
aI176
aI170
asg10
(lp966
(lp967
I181
aF-1
aa(lp968
I86
aF1
aa(lp969
I205
aF1
aa(lp970
I88
aF1
aasg12
I777
sa(dp971
g4
(lp972
I1
aI4
aI3
aI0
aI2
aI5
asg6
VCan more than 20 people fit inside it?
p973
sg8
(lp974
I192
aI39
aI165
aI64
aI90
aI96
asg10
(lp975
(lp976
I86
aF1
aa(lp977
I88
aF1
aa(lp978
I168
aF1
aa(lp979
I2
aF1
aasg12
I375
sa(dp980
g4
(lp981
I4
aI0
aI3
aI1
aI2
aI5
asg6
VDoes it have fur?
p982
sg8
(lp983
I129
aI164
aI29
aI135
aI100
aI17
asg10
(lp984
(lp985
I78
aF-1
aa(lp986
I75
aF1
aa(lp987
I0
aF1
aa(lp988
I134
aF1
aasg12
I362
sa(dp989
g4
(lp990
I3
aI1
aI2
aI4
aI0
aI5
asg6
VWhat color is it?
p991
sg8
(lp992
I159
aI193
aI139
aI200
aI102
aI16
asg10
(lp993
(lp994
I76
aF1
aa(lp995
I0
aF0
aa(lp996
I63
aF1
aa(lp997
I119
aF1
aa(lp998
I91
aF-1
aa(lp999
I134
aF1
aasg12
I285
sa(dp1000
g4
(lp1001
I2
aI0
aI1
aI3
aI4
aI5
asg6
VDoes it eat grass?
p1002
sg8
(lp1003
I146
aI123
aI103
aI212
aI87
aI3
asg10
(lp1004
(lp1005
I207
aF-0.5
aa(lp1006
I78
aF-1
aa(lp1007
I82
aF1
aa(lp1008
I76
aF1
aa(lp1009
I75
aF1
aa(lp1010
I69
aF0.5
aasg12
I703
sa(dp1011
g4
(lp1012
I3
aI5
aI0
aI1
aI4
aI2
asg6
VDoes it have fur?
p1013
sg8
(lp1014
I197
aI187
aI41
aI177
aI57
aI206
asg10
(lp1015
(lp1016
I82
aF1
aa(lp1017
I207
aF1
aa(lp1018
I205
aF-1
aa(lp1019
I216
aF1
aa(lp1020
I78
aF-1
aa(lp1021
I181
aF1
aasg12
I922
sa(dp1022
g4
(lp1023
I1
aI4
aI0
aI2
aI3
aI5
asg6
VDo you wear it?
p1024
sg8
(lp1025
I116
aI67
aI72
aI112
aI68
aI107
asg10
(lp1026
(lp1027
I78
aF0
aa(lp1028
I153
aF-1
aa(lp1029
I216
aF1
aa(lp1030
I168
aF1
aa(lp1031
I63
aF0.5
aa(lp1032
I143
aF1
aasg12
I13
saa(lp1033
(dp1034
g4
(lp1035
I0
aI2
aI4
aI5
aI1
aI3
asg6
VIs it alive?
p1036
sg8
(lp1037
I62
aI33
aI127
aI26
aI22
aI12
asg10
(lp1038
sg12
I310
sa(dp1039
g4
(lp1040
I1
aI0
aI2
aI3
aI4
aI5
asg6
VIs it made of metal?
p1041
sg8
(lp1042
I38
aI149
aI196
aI56
aI163
aI98
asg10
(lp1043
(lp1044
I153
aF1
aa(lp1045
I78
aF0.5
aasg12
I981
sa(dp1046
g4
(lp1047
I1
aI2
aI3
aI4
aI0
aI5
asg6
VDoes it require training to use it?
p1048
sg8
(lp1049
I204
aI80
aI140
aI35
aI152
aI131
asg10
(lp1050
(lp1051
I78
aF1
aa(lp1052
I154
aF1
aasg12
I302
sa(dp1053
g4
(lp1054
I5
aI3
aI1
aI4
aI0
aI2
asg6
VIs it alive?
p1055
sg8
(lp1056
I158
aI189
aI71
aI214
aI9
aI95
asg10
(lp1057
(lp1058
I148
aF1
aa(lp1059
I82
aF0.5
aasg12
I161
sa(dp1060
g4
(lp1061
I4
aI1
aI5
aI3
aI2
aI0
asg6
VIs it alive?
p1062
sg8
(lp1063
I211
aI23
aI34
aI92
aI145
aI6
asg10
(lp1064
(lp1065
I148
aF0
aa(lp1066
I205
aF-0.5
aasg12
I428
sa(dp1067
g4
(lp1068
I3
aI5
aI2
aI1
aI4
aI0
asg6
VCan we eat it?
p1069
sg8
(lp1070
I150
aI21
aI65
aI186
aI151
aI132
asg10
(lp1071
(lp1072
I207
aF1
aa(lp1073
I82
aF1
aa(lp1074
I216
aF1
aa(lp1075
I181
aF1
aasg12
I564
sa(dp1076
g4
(lp1077
I2
aI3
aI4
aI1
aI5
aI0
asg6
VIs it a mammal?
p1078
sg8
(lp1079
I85
aI47
aI191
aI44
aI176
aI170
asg10
(lp1080
(lp1081
I181
aF-1
aa(lp1082
I86
aF1
aa(lp1083
I205
aF1
aa(lp1084
I88
aF1
aasg12
I777
sa(dp1085
g4
(lp1086
I0
aI1
aI3
aI2
aI4
aI5
asg6
VIs it a public building?
p1087
sg8
(lp1088
I192
aI39
aI165
aI64
aI90
aI96
asg10
(lp1089
(lp1090
I86
aF1
aa(lp1091
I88
aF1
aa(lp1092
I168
aF1
aa(lp1093
I2
aF1
aasg12
I375
sa(dp1094
g4
(lp1095
I1
aI2
aI3
aI0
aI4
aI5
asg6
VIs it domesticated?
p1096
sg8
(lp1097
I129
aI164
aI29
aI135
aI100
aI17
asg10
(lp1098
(lp1099
I78
aF-1
aa(lp1100
I75
aF1
aa(lp1101
I0
aF1
aa(lp1102
I134
aF1
aasg12
I362
sa(dp1103
g4
(lp1104
I2
aI1
aI3
aI0
aI4
aI5
asg6
VIs it a primate?
p1105
sg8
(lp1106
I159
aI193
aI139
aI200
aI102
aI16
asg10
(lp1107
(lp1108
I76
aF1
aa(lp1109
I0
aF0
aa(lp1110
I63
aF1
aa(lp1111
I119
aF1
aa(lp1112
I91
aF-1
aa(lp1113
I134
aF1
aasg12
I285
sa(dp1114
g4
(lp1115
I2
aI1
aI3
aI4
aI5
aI0
asg6
VDo we eat it?
p1116
sg8
(lp1117
I146
aI123
aI103
aI212
aI87
aI3
asg10
(lp1118
(lp1119
I207
aF-0.5
aa(lp1120
I78
aF-1
aa(lp1121
I82
aF1
aa(lp1122
I76
aF1
aa(lp1123
I75
aF1
aa(lp1124
I69
aF0.5
aasg12
I703
sa(dp1125
g4
(lp1126
I0
aI3
aI1
aI4
aI2
aI5
asg6
VIs it a pet?
p1127
sg8
(lp1128
I197
aI187
aI41
aI177
aI57
aI206
asg10
(lp1129
(lp1130
I82
aF1
aa(lp1131
I207
aF1
aa(lp1132
I205
aF-1
aa(lp1133
I216
aF1
aa(lp1134
I78
aF-1
aa(lp1135
I181
aF1
aasg12
I922
sa(dp1136
g4
(lp1137
I0
aI1
aI2
aI3
aI4
aI5
asg6
VIs it bigger than a car?
p1138
sg8
(lp1139
I116
aI67
aI72
aI112
aI68
aI107
asg10
(lp1140
(lp1141
I78
aF0
aa(lp1142
I153
aF-1
aa(lp1143
I216
aF1
aa(lp1144
I168
aF1
aa(lp1145
I63
aF0.5
aa(lp1146
I143
aF1
aasg12
I13
saa(lp1147
(dp1148
g4
(lp1149
I2
aI4
aI0
aI1
aI5
aI3
asg6
VIs it bigger than a microwave oven?
p1150
sg8
(lp1151
I62
aI33
aI127
aI26
aI22
aI12
asg10
(lp1152
sg12
I310
sa(dp1153
g4
(lp1154
I1
aI0
aI2
aI5
aI4
aI3
asg6
VIs it alive?
p1155
sg8
(lp1156
I38
aI149
aI196
aI56
aI163
aI98
asg10
(lp1157
(lp1158
I153
aF1
aa(lp1159
I78
aF0.5
aasg12
I981
sa(dp1160
g4
(lp1161
I5
aI0
aI2
aI1
aI4
aI3
asg6
VCan you wear it?
p1162
sg8
(lp1163
I204
aI80
aI140
aI35
aI152
aI131
asg10
(lp1164
(lp1165
I78
aF1
aa(lp1166
I154
aF1
aasg12
I302
sa(dp1167
g4
(lp1168
I4
aI5
aI3
aI0
aI1
aI2
asg6
VCan you wear it?
p1169
sg8
(lp1170
I158
aI189
aI71
aI214
aI9
aI95
asg10
(lp1171
(lp1172
I148
aF1
aa(lp1173
I82
aF0.5
aasg12
I161
sa(dp1174
g4
(lp1175
I4
aI3
aI2
aI5
aI1
aI0
asg6
VCan you wear it?
p1176
sg8
(lp1177
I211
aI23
aI34
aI92
aI145
aI6
asg10
(lp1178
(lp1179
I148
aF0
aa(lp1180
I205
aF-0.5
aasg12
I428
sa(dp1181
g4
(lp1182
I5
aI3
aI4
aI1
aI0
aI2
asg6
VCan you wear it?
p1183
sg8
(lp1184
I150
aI21
aI65
aI186
aI151
aI132
asg10
(lp1185
(lp1186
I207
aF1
aa(lp1187
I82
aF1
aa(lp1188
I216
aF1
aa(lp1189
I181
aF1
aasg12
I564
sa(dp1190
g4
(lp1191
I4
aI5
aI3
aI1
aI0
aI2
asg6
VCan you buy it?
p1192
sg8
(lp1193
I85
aI47
aI191
aI44
aI176
aI170
asg10
(lp1194
(lp1195
I181
aF-1
aa(lp1196
I86
aF1
aa(lp1197
I205
aF1
aa(lp1198
I88
aF1
aasg12
I777
sa(dp1199
g4
(lp1200
I1
aI2
aI4
aI3
aI0
aI5
asg6
VCan you wear it?
p1201
sg8
(lp1202
I192
aI39
aI165
aI64
aI90
aI96
asg10
(lp1203
(lp1204
I86
aF1
aa(lp1205
I88
aF1
aa(lp1206
I168
aF1
aa(lp1207
I2
aF1
aasg12
I375
sa(dp1208
g4
(lp1209
I0
aI1
aI4
aI5
aI2
aI3
asg6
VDoes it swim?
p1210
sg8
(lp1211
I129
aI164
aI29
aI135
aI100
aI17
asg10
(lp1212
(lp1213
I78
aF-1
aa(lp1214
I75
aF1
aa(lp1215
I0
aF1
aa(lp1216
I134
aF1
aasg12
I362
sa(dp1217
g4
(lp1218
I2
aI0
aI4
aI1
aI3
aI5
asg6
VCan you wear it?
p1219
sg8
(lp1220
I159
aI193
aI139
aI200
aI102
aI16
asg10
(lp1221
(lp1222
I76
aF1
aa(lp1223
I0
aF0
aa(lp1224
I63
aF1
aa(lp1225
I119
aF1
aa(lp1226
I91
aF-1
aa(lp1227
I134
aF1
aasg12
I285
sa(dp1228
g4
(lp1229
I4
aI2
aI0
aI1
aI5
aI3
asg6
VCan you wear it?
p1230
sg8
(lp1231
I146
aI123
aI103
aI212
aI87
aI3
asg10
(lp1232
(lp1233
I207
aF-0.5
aa(lp1234
I78
aF-1
aa(lp1235
I82
aF1
aa(lp1236
I76
aF1
aa(lp1237
I75
aF1
aa(lp1238
I69
aF0.5
aasg12
I703
sa(dp1239
g4
(lp1240
I5
aI2
aI0
aI1
aI4
aI3
asg6
VIs it Alive?
p1241
sg8
(lp1242
I197
aI187
aI41
aI177
aI57
aI206
asg10
(lp1243
(lp1244
I82
aF1
aa(lp1245
I207
aF1
aa(lp1246
I205
aF-1
aa(lp1247
I216
aF1
aa(lp1248
I78
aF-1
aa(lp1249
I181
aF1
aasg12
I922
sa(dp1250
g4
(lp1251
I3
aI0
aI4
aI5
aI1
aI2
asg6
VCan you wear it?
p1252
sg8
(lp1253
I116
aI67
aI72
aI112
aI68
aI107
asg10
(lp1254
(lp1255
I78
aF0
aa(lp1256
I153
aF-1
aa(lp1257
I216
aF1
aa(lp1258
I168
aF1
aa(lp1259
I63
aF0.5
aa(lp1260
I143
aF1
aasg12
I13
saa(lp1261
(dp1262
g4
(lp1263
I3
aI1
aI0
aI4
aI2
aI5
asg6
VIs it a triangle?
p1264
sg8
(lp1265
I62
aI33
aI127
aI26
aI22
aI12
asg10
(lp1266
sg12
I310
sa(dp1267
g4
(lp1268
I2
aI1
aI3
aI0
aI4
aI5
asg6
Vwhat is it's name?
p1269
sg8
(lp1270
I38
aI149
aI196
aI56
aI163
aI98
asg10
(lp1271
(lp1272
I153
aF1
aa(lp1273
I78
aF0.5
aasg12
I981
sa(dp1274
g4
(lp1275
I2
aI3
aI0
aI4
aI5
aI1
asg6
VWhat is it called?
p1276
sg8
(lp1277
I204
aI80
aI140
aI35
aI152
aI131
asg10
(lp1278
(lp1279
I78
aF1
aa(lp1280
I154
aF1
aasg12
I302
sa(dp1281
g4
(lp1282
I4
aI0
aI5
aI1
aI3
aI2
asg6
VWhat do you call it?
p1283
sg8
(lp1284
I158
aI189
aI71
aI214
aI9
aI95
asg10
(lp1285
(lp1286
I148
aF1
aa(lp1287
I82
aF0.5
aasg12
I161
sa(dp1288
g4
(lp1289
I2
aI4
aI3
aI1
aI5
aI0
asg6
VWhat is it called?
p1290
sg8
(lp1291
I211
aI23
aI34
aI92
aI145
aI6
asg10
(lp1292
(lp1293
I148
aF0
aa(lp1294
I205
aF-0.5
aasg12
I428
sa(dp1295
g4
(lp1296
I4
aI3
aI5
aI0
aI2
aI1
asg6
Vwhat is it called?
p1297
sg8
(lp1298
I150
aI21
aI65
aI186
aI151
aI132
asg10
(lp1299
(lp1300
I207
aF1
aa(lp1301
I82
aF1
aa(lp1302
I216
aF1
aa(lp1303
I181
aF1
aasg12
I564
sa(dp1304
g4
(lp1305
I1
aI4
aI3
aI5
aI0
aI2
asg6
Vwhat is it called?
p1306
sg8
(lp1307
I85
aI47
aI191
aI44
aI176
aI170
asg10
(lp1308
(lp1309
I181
aF-1
aa(lp1310
I86
aF1
aa(lp1311
I205
aF1
aa(lp1312
I88
aF1
aasg12
I777
sa(dp1313
g4
(lp1314
I5
aI4
aI3
aI2
aI0
aI1
asg6
VWhat is it called?
p1315
sg8
(lp1316
I192
aI39
aI165
aI64
aI90
aI96
asg10
(lp1317
(lp1318
I86
aF1
aa(lp1319
I88
aF1
aa(lp1320
I168
aF1
aa(lp1321
I2
aF1
aasg12
I375
sa(dp1322
g4
(lp1323
I3
aI0
aI4
aI2
aI1
aI5
asg6
VWhat is it called?
p1324
sg8
(lp1325
I129
aI164
aI29
aI135
aI100
aI17
asg10
(lp1326
(lp1327
I78
aF-1
aa(lp1328
I75
aF1
aa(lp1329
I0
aF1
aa(lp1330
I134
aF1
aasg12
I362
sa(dp1331
g4
(lp1332
I3
aI1
aI4
aI2
aI0
aI5
asg6
VWhat is it's name
p1333
sg8
(lp1334
I159
aI193
aI139
aI200
aI102
aI16
asg10
(lp1335
(lp1336
I76
aF1
aa(lp1337
I0
aF0
aa(lp1338
I63
aF1
aa(lp1339
I119
aF1
aa(lp1340
I91
aF-1
aa(lp1341
I134
aF1
aasg12
I285
sa(dp1342
g4
(lp1343
I1
aI4
aI2
aI3
aI0
aI5
asg6
Vwhat is it called?
p1344
sg8
(lp1345
I146
aI123
aI103
aI212
aI87
aI3
asg10
(lp1346
(lp1347
I207
aF-0.5
aa(lp1348
I78
aF-1
aa(lp1349
I82
aF1
aa(lp1350
I76
aF1
aa(lp1351
I75
aF1
aa(lp1352
I69
aF0.5
aasg12
I703
sa(dp1353
g4
(lp1354
I2
aI3
aI5
aI1
aI0
aI4
asg6
VWhat is it called?
p1355
sg8
(lp1356
I197
aI187
aI41
aI177
aI57
aI206
asg10
(lp1357
(lp1358
I82
aF1
aa(lp1359
I207
aF1
aa(lp1360
I205
aF-1
aa(lp1361
I216
aF1
aa(lp1362
I78
aF-1
aa(lp1363
I181
aF1
aasg12
I922
sa(dp1364
g4
(lp1365
I4
aI2
aI3
aI1
aI0
aI5
asg6
Vwhat is it called?
p1366
sg8
(lp1367
I116
aI67
aI72
aI112
aI68
aI107
asg10
(lp1368
(lp1369
I78
aF0
aa(lp1370
I153
aF-1
aa(lp1371
I216
aF1
aa(lp1372
I168
aF1
aa(lp1373
I63
aF0.5
aa(lp1374
I143
aF1
aasg12
I13
saa(lp1375
(dp1376
g4
(lp1377
I5
aI3
aI0
aI4
aI1
aI2
asg6
VIs it living
p1378
sg8
(lp1379
I62
aI33
aI127
aI26
aI22
aI12
asg10
(lp1380
sg12
I310
sa(dp1381
g4
(lp1382
I2
aI4
aI1
aI0
aI3
aI5
asg6
VIs it a tool?
p1383
sg8
(lp1384
I38
aI149
aI196
aI56
aI163
aI98
asg10
(lp1385
(lp1386
I153
aF1
aa(lp1387
I78
aF0.5
aasg12
I981
sa(dp1388
g4
(lp1389
I2
aI1
aI4
aI0
aI5
aI3
asg6
VIS IT COLOR BLACK?
p1390
sg8
(lp1391
I204
aI80
aI140
aI35
aI152
aI131
asg10
(lp1392
(lp1393
I78
aF1
aa(lp1394
I154
aF1
aasg12
I302
sa(dp1395
g4
(lp1396
I4
aI0
aI5
aI3
aI1
aI2
asg6
VIs it living?
p1397
sg8
(lp1398
I158
aI189
aI71
aI214
aI9
aI95
asg10
(lp1399
(lp1400
I148
aF1
aa(lp1401
I82
aF0.5
aasg12
I161
sa(dp1402
g4
(lp1403
I3
aI5
aI1
aI0
aI4
aI2
asg6
VIs it bigger than a dog?
p1404
sg8
(lp1405
I211
aI23
aI34
aI92
aI145
aI6
asg10
(lp1406
(lp1407
I148
aF0
aa(lp1408
I205
aF-0.5
aasg12
I428
sa(dp1409
g4
(lp1410
I0
aI5
aI3
aI4
aI1
aI2
asg6
VIS IT A TOOL?
p1411
sg8
(lp1412
I150
aI21
aI65
aI186
aI151
aI132
asg10
(lp1413
(lp1414
I207
aF1
aa(lp1415
I82
aF1
aa(lp1416
I216
aF1
aa(lp1417
I181
aF1
aasg12
I564
sa(dp1418
g4
(lp1419
I5
aI2
aI1
aI4
aI3
aI0
asg6
VIs it alive?
p1420
sg8
(lp1421
I85
aI47
aI191
aI44
aI176
aI170
asg10
(lp1422
(lp1423
I181
aF-1
aa(lp1424
I86
aF1
aa(lp1425
I205
aF1
aa(lp1426
I88
aF1
aasg12
I777
sa(dp1427
g4
(lp1428
I2
aI1
aI0
aI5
aI4
aI3
asg6
VCAN YOU BUY IT?
p1429
sg8
(lp1430
I192
aI39
aI165
aI64
aI90
aI96
asg10
(lp1431
(lp1432
I86
aF1
aa(lp1433
I88
aF1
aa(lp1434
I168
aF1
aa(lp1435
I2
aF1
aasg12
I375
sa(dp1436
g4
(lp1437
I0
aI5
aI1
aI2
aI3
aI4
asg6
VDOES IT LIVE IN WATER?
p1438
sg8
(lp1439
I129
aI164
aI29
aI135
aI100
aI17
asg10
(lp1440
(lp1441
I78
aF-1
aa(lp1442
I75
aF1
aa(lp1443
I0
aF1
aa(lp1444
I134
aF1
aasg12
I362
sa(dp1445
g4
(lp1446
I1
aI4
aI0
aI5
aI3
aI2
asg6
VCan you buy it?
p1447
sg8
(lp1448
I159
aI193
aI139
aI200
aI102
aI16
asg10
(lp1449
(lp1450
I76
aF1
aa(lp1451
I0
aF0
aa(lp1452
I63
aF1
aa(lp1453
I119
aF1
aa(lp1454
I91
aF-1
aa(lp1455
I134
aF1
aasg12
I285
sa(dp1456
g4
(lp1457
I0
aI4
aI2
aI1
aI5
aI3
asg6
VCan you buy it?
p1458
sg8
(lp1459
I146
aI123
aI103
aI212
aI87
aI3
asg10
(lp1460
(lp1461
I207
aF-0.5
aa(lp1462
I78
aF-1
aa(lp1463
I82
aF1
aa(lp1464
I76
aF1
aa(lp1465
I75
aF1
aa(lp1466
I69
aF0.5
aasg12
I703
sa(dp1467
g4
(lp1468
I3
aI2
aI5
aI0
aI4
aI1
asg6
VIs it alive?
p1469
sg8
(lp1470
I197
aI187
aI41
aI177
aI57
aI206
asg10
(lp1471
(lp1472
I82
aF1
aa(lp1473
I207
aF1
aa(lp1474
I205
aF-1
aa(lp1475
I216
aF1
aa(lp1476
I78
aF-1
aa(lp1477
I181
aF1
aasg12
I922
sa(dp1478
g4
(lp1479
I1
aI0
aI3
aI5
aI2
aI4
asg6
VIs it living?
p1480
sg8
(lp1481
I116
aI67
aI72
aI112
aI68
aI107
asg10
(lp1482
(lp1483
I78
aF0
aa(lp1484
I153
aF-1
aa(lp1485
I216
aF1
aa(lp1486
I168
aF1
aa(lp1487
I63
aF0.5
aa(lp1488
I143
aF1
aasg12
I13
saa(lp1489
(dp1490
g4
(lp1491
I0
aI2
aI4
aI3
aI1
aI5
asg6
VDoes it have black shading?
p1492
sg8
(lp1493
I62
aI33
aI127
aI26
aI22
aI12
asg10
(lp1494
sg12
I310
sa(dp1495
g4
(lp1496
I1
aI2
aI4
aI0
aI3
aI5
asg6
VWhat color is it
p1497
sg8
(lp1498
I38
aI149
aI196
aI56
aI163
aI98
asg10
(lp1499
(lp1500
I153
aF1
aa(lp1501
I78
aF0.5
aasg12
I981
sa(dp1502
g4
(lp1503
I0
aI2
aI4
aI3
aI1
aI5
asg6
VIs it bigger than a car?
p1504
sg8
(lp1505
I204
aI80
aI140
aI35
aI152
aI131
asg10
(lp1506
(lp1507
I78
aF1
aa(lp1508
I154
aF1
aasg12
I302
sa(dp1509
g4
(lp1510
I1
aI2
aI4
aI5
aI0
aI3
asg6
VWhat color is it
p1511
sg8
(lp1512
I158
aI189
aI71
aI214
aI9
aI95
asg10
(lp1513
(lp1514
I148
aF1
aa(lp1515
I82
aF0.5
aasg12
I161
sa(dp1516
g4
(lp1517
I2
aI4
aI3
aI1
aI0
aI5
asg6
VIt it bigger than a car
p1518
sg8
(lp1519
I211
aI23
aI34
aI92
aI145
aI6
asg10
(lp1520
(lp1521
I148
aF0
aa(lp1522
I205
aF-0.5
aasg12
I428
sa(dp1523
g4
(lp1524
I1
aI0
aI2
aI3
aI5
aI4
asg6
VWhat color is it
p1525
sg8
(lp1526
I150
aI21
aI65
aI186
aI151
aI132
asg10
(lp1527
(lp1528
I207
aF1
aa(lp1529
I82
aF1
aa(lp1530
I216
aF1
aa(lp1531
I181
aF1
aasg12
I564
sa(dp1532
g4
(lp1533
I2
aI1
aI3
aI4
aI5
aI0
asg6
VDoes it live in the ocean?
p1534
sg8
(lp1535
I85
aI47
aI191
aI44
aI176
aI170
asg10
(lp1536
(lp1537
I181
aF-1
aa(lp1538
I86
aF1
aa(lp1539
I205
aF1
aa(lp1540
I88
aF1
aasg12
I777
sa(dp1541
g4
(lp1542
I1
aI0
aI2
aI4
aI3
aI5
asg6
VDoes it have windows
p1543
sg8
(lp1544
I192
aI39
aI165
aI64
aI90
aI96
asg10
(lp1545
(lp1546
I86
aF1
aa(lp1547
I88
aF1
aa(lp1548
I168
aF1
aa(lp1549
I2
aF1
aasg12
I375
sa(dp1550
g4
(lp1551
I0
aI4
aI3
aI1
aI2
aI5
asg6
VIs it bigger than a dog
p1552
sg8
(lp1553
I129
aI164
aI29
aI135
aI100
aI17
asg10
(lp1554
(lp1555
I78
aF-1
aa(lp1556
I75
aF1
aa(lp1557
I0
aF1
aa(lp1558
I134
aF1
aasg12
I362
sa(dp1559
g4
(lp1560
I1
aI3
aI4
aI2
aI0
aI5
asg6
VWhat color is it
p1561
sg8
(lp1562
I159
aI193
aI139
aI200
aI102
aI16
asg10
(lp1563
(lp1564
I76
aF1
aa(lp1565
I0
aF0
aa(lp1566
I63
aF1
aa(lp1567
I119
aF1
aa(lp1568
I91
aF-1
aa(lp1569
I134
aF1
aasg12
I285
sa(dp1570
g4
(lp1571
I4
aI2
aI5
aI1
aI0
aI3
asg6
VIs it bigger than a car
p1572
sg8
(lp1573
I146
aI123
aI103
aI212
aI87
aI3
asg10
(lp1574
(lp1575
I207
aF-0.5
aa(lp1576
I78
aF-1
aa(lp1577
I82
aF1
aa(lp1578
I76
aF1
aa(lp1579
I75
aF1
aa(lp1580
I69
aF0.5
aasg12
I703
sa(dp1581
g4
(lp1582
I0
aI1
aI2
aI4
aI3
aI5
asg6
VWhat color is it?
p1583
sg8
(lp1584
I197
aI187
aI41
aI177
aI57
aI206
asg10
(lp1585
(lp1586
I82
aF1
aa(lp1587
I207
aF1
aa(lp1588
I205
aF-1
aa(lp1589
I216
aF1
aa(lp1590
I78
aF-1
aa(lp1591
I181
aF1
aasg12
I922
sa(dp1592
g4
(lp1593
I1
aI4
aI2
aI3
aI0
aI5
asg6
VWhat color is it
p1594
sg8
(lp1595
I116
aI67
aI72
aI112
aI68
aI107
asg10
(lp1596
(lp1597
I78
aF0
aa(lp1598
I153
aF-1
aa(lp1599
I216
aF1
aa(lp1600
I168
aF1
aa(lp1601
I63
aF0.5
aa(lp1602
I143
aF1
aasg12
I13
saa(lp1603
(dp1604
g4
(lp1605
I2
aI3
aI0
aI4
aI1
aI5
asg6
VIs it alive?
p1606
sg8
(lp1607
I62
aI33
aI127
aI26
aI22
aI12
asg10
(lp1608
sg12
I310
sa(dp1609
g4
(lp1610
I3
aI2
aI4
aI1
aI0
aI5
asg6
VCan you buy it at a grocery store?
p1611
sg8
(lp1612
I38
aI149
aI196
aI56
aI163
aI98
asg10
(lp1613
(lp1614
I153
aF1
aa(lp1615
I78
aF0.5
aasg12
I981
sa(dp1616
g4
(lp1617
I1
aI2
aI3
aI0
aI5
aI4
asg6
Vis it a personal care product?
p1618
sg8
(lp1619
I204
aI80
aI140
aI35
aI152
aI131
asg10
(lp1620
(lp1621
I78
aF1
aa(lp1622
I154
aF1
aasg12
I302
sa(dp1623
g4
(lp1624
I4
aI0
aI5
aI3
aI2
aI1
asg6
VCan you hold it?
p1625
sg8
(lp1626
I158
aI189
aI71
aI214
aI9
aI95
asg10
(lp1627
(lp1628
I148
aF1
aa(lp1629
I82
aF0.5
aasg12
I161
sa(dp1630
g4
(lp1631
I3
aI5
aI1
aI4
aI2
aI0
asg6
VIs it larger than a fridge?
p1632
sg8
(lp1633
I211
aI23
aI34
aI92
aI145
aI6
asg10
(lp1634
(lp1635
I148
aF0
aa(lp1636
I205
aF-0.5
aasg12
I428
sa(dp1637
g4
(lp1638
I2
aI3
aI1
aI0
aI4
aI5
asg6
VIs it alive?
p1639
sg8
(lp1640
I150
aI21
aI65
aI186
aI151
aI132
asg10
(lp1641
(lp1642
I207
aF1
aa(lp1643
I82
aF1
aa(lp1644
I216
aF1
aa(lp1645
I181
aF1
aasg12
I564
sa(dp1646
g4
(lp1647
I2
aI3
aI1
aI4
aI5
aI0
asg6
VIs it alive?
p1648
sg8
(lp1649
I85
aI47
aI191
aI44
aI176
aI170
asg10
(lp1650
(lp1651
I181
aF-1
aa(lp1652
I86
aF1
aa(lp1653
I205
aF1
aa(lp1654
I88
aF1
aasg12
I777
sa(dp1655
g4
(lp1656
I1
aI4
aI3
aI2
aI0
aI5
asg6
VIs it an animal?
p1657
sg8
(lp1658
I192
aI39
aI165
aI64
aI90
aI96
asg10
(lp1659
(lp1660
I86
aF1
aa(lp1661
I88
aF1
aa(lp1662
I168
aF1
aa(lp1663
I2
aF1
aasg12
I375
sa(dp1664
g4
(lp1665
I0
aI2
aI4
aI3
aI1
aI5
asg6
VIs it larger than an adult man?
p1666
sg8
(lp1667
I129
aI164
aI29
aI135
aI100
aI17
asg10
(lp1668
(lp1669
I78
aF-1
aa(lp1670
I75
aF1
aa(lp1671
I0
aF1
aa(lp1672
I134
aF1
aasg12
I362
sa(dp1673
g4
(lp1674
I1
aI3
aI4
aI2
aI0
aI5
asg6
VIs it larger than a basketball?
p1675
sg8
(lp1676
I159
aI193
aI139
aI200
aI102
aI16
asg10
(lp1677
(lp1678
I76
aF1
aa(lp1679
I0
aF0
aa(lp1680
I63
aF1
aa(lp1681
I119
aF1
aa(lp1682
I91
aF-1
aa(lp1683
I134
aF1
aasg12
I285
sa(dp1684
g4
(lp1685
I3
aI2
aI1
aI4
aI5
aI0
asg6
VDoes it have legs?
p1686
sg8
(lp1687
I146
aI123
aI103
aI212
aI87
aI3
asg10
(lp1688
(lp1689
I207
aF-0.5
aa(lp1690
I78
aF-1
aa(lp1691
I82
aF1
aa(lp1692
I76
aF1
aa(lp1693
I75
aF1
aa(lp1694
I69
aF0.5
aasg12
I703
sa(dp1695
g4
(lp1696
I0
aI2
aI3
aI4
aI1
aI5
asg6
VIs it larger than a pillow?
p1697
sg8
(lp1698
I197
aI187
aI41
aI177
aI57
aI206
asg10
(lp1699
(lp1700
I82
aF1
aa(lp1701
I207
aF1
aa(lp1702
I205
aF-1
aa(lp1703
I216
aF1
aa(lp1704
I78
aF-1
aa(lp1705
I181
aF1
aasg12
I922
sa(dp1706
g4
(lp1707
I3
aI1
aI2
aI4
aI0
aI5
asg6
VIs it a building?
p1708
sg8
(lp1709
I116
aI67
aI72
aI112
aI68
aI107
asg10
(lp1710
(lp1711
I78
aF0
aa(lp1712
I153
aF-1
aa(lp1713
I216
aF1
aa(lp1714
I168
aF1
aa(lp1715
I63
aF0.5
aa(lp1716
I143
aF1
aasg12
I13
saa(lp1717
(dp1718
g4
(lp1719
I5
aI3
aI0
aI1
aI2
aI4
asg6
VIs it an animal?
p1720
sg8
(lp1721
I62
aI33
aI127
aI26
aI22
aI12
asg10
(lp1722
sg12
I310
sa(dp1723
g4
(lp1724
I4
aI1
aI0
aI3
aI5
aI2
asg6
VIs it an animal?
p1725
sg8
(lp1726
I38
aI149
aI196
aI56
aI163
aI98
asg10
(lp1727
(lp1728
I153
aF1
aa(lp1729
I78
aF0.5
aasg12
I981
sa(dp1730
g4
(lp1731
I2
aI3
aI1
aI0
aI5
aI4
asg6
VIs it an appliance?
p1732
sg8
(lp1733
I204
aI80
aI140
aI35
aI152
aI131
asg10
(lp1734
(lp1735
I78
aF1
aa(lp1736
I154
aF1
aasg12
I302
sa(dp1737
g4
(lp1738
I3
aI4
aI5
aI1
aI2
aI0
asg6
VIs it an animal?
p1739
sg8
(lp1740
I158
aI189
aI71
aI214
aI9
aI95
asg10
(lp1741
(lp1742
I148
aF1
aa(lp1743
I82
aF0.5
aasg12
I161
sa(dp1744
g4
(lp1745
I3
aI2
aI5
aI1
aI0
aI4
asg6
VIs it an animal?
p1746
sg8
(lp1747
I211
aI23
aI34
aI92
aI145
aI6
asg10
(lp1748
(lp1749
I148
aF0
aa(lp1750
I205
aF-0.5
aasg12
I428
sa(dp1751
g4
(lp1752
I5
aI2
aI3
aI4
aI0
aI1
asg6
VIs it an animal?
p1753
sg8
(lp1754
I150
aI21
aI65
aI186
aI151
aI132
asg10
(lp1755
(lp1756
I207
aF1
aa(lp1757
I82
aF1
aa(lp1758
I216
aF1
aa(lp1759
I181
aF1
aasg12
I564
sa(dp1760
g4
(lp1761
I2
aI1
aI4
aI5
aI3
aI0
asg6
VIs it an animal?
p1762
sg8
(lp1763
I85
aI47
aI191
aI44
aI176
aI170
asg10
(lp1764
(lp1765
I181
aF-1
aa(lp1766
I86
aF1
aa(lp1767
I205
aF1
aa(lp1768
I88
aF1
aasg12
I777
sa(dp1769
g4
(lp1770
I1
aI3
aI0
aI4
aI2
aI5
asg6
VIs it made of wood?
p1771
sg8
(lp1772
I192
aI39
aI165
aI64
aI90
aI96
asg10
(lp1773
(lp1774
I86
aF1
aa(lp1775
I88
aF1
aa(lp1776
I168
aF1
aa(lp1777
I2
aF1
aasg12
I375
sa(dp1778
g4
(lp1779
I0
aI4
aI3
aI1
aI2
aI5
asg6
VDoes it have 4 legs?
p1780
sg8
(lp1781
I129
aI164
aI29
aI135
aI100
aI17
asg10
(lp1782
(lp1783
I78
aF-1
aa(lp1784
I75
aF1
aa(lp1785
I0
aF1
aa(lp1786
I134
aF1
aasg12
I362
sa(dp1787
g4
(lp1788
I2
aI3
aI1
aI4
aI0
aI5
asg6
Vdoes it breath air?
p1789
sg8
(lp1790
I159
aI193
aI139
aI200
aI102
aI16
asg10
(lp1791
(lp1792
I76
aF1
aa(lp1793
I0
aF0
aa(lp1794
I63
aF1
aa(lp1795
I119
aF1
aa(lp1796
I91
aF-1
aa(lp1797
I134
aF1
aasg12
I285
sa(dp1798
g4
(lp1799
I1
aI4
aI2
aI0
aI3
aI5
asg6
VDoes it breath air?
p1800
sg8
(lp1801
I146
aI123
aI103
aI212
aI87
aI3
asg10
(lp1802
(lp1803
I207
aF-0.5
aa(lp1804
I78
aF-1
aa(lp1805
I82
aF1
aa(lp1806
I76
aF1
aa(lp1807
I75
aF1
aa(lp1808
I69
aF0.5
aasg12
I703
sa(dp1809
g4
(lp1810
I0
aI3
aI4
aI2
aI5
aI1
asg6
VIs it a pet?
p1811
sg8
(lp1812
I197
aI187
aI41
aI177
aI57
aI206
asg10
(lp1813
(lp1814
I82
aF1
aa(lp1815
I207
aF1
aa(lp1816
I205
aF-1
aa(lp1817
I216
aF1
aa(lp1818
I78
aF-1
aa(lp1819
I181
aF1
aasg12
I922
sa(dp1820
g4
(lp1821
I4
aI3
aI2
aI1
aI5
aI0
asg6
VIs it made of plastic?
p1822
sg8
(lp1823
I116
aI67
aI72
aI112
aI68
aI107
asg10
(lp1824
(lp1825
I78
aF0
aa(lp1826
I153
aF-1
aa(lp1827
I216
aF1
aa(lp1828
I168
aF1
aa(lp1829
I63
aF0.5
aa(lp1830
I143
aF1
aasg12
I13
saa(lp1831
(dp1832
g4
(lp1833
I0
aI2
aI1
aI3
aI5
aI4
asg6
VIs it bigger than a breadbox?
p1834
sg8
(lp1835
I62
aI33
aI127
aI26
aI22
aI12
asg10
(lp1836
sg12
I310
sa(dp1837
g4
(lp1838
I2
aI3
aI1
aI4
aI0
aI5
asg6
VIs it alive?
p1839
sg8
(lp1840
I38
aI149
aI196
aI56
aI163
aI98
asg10
(lp1841
(lp1842
I153
aF1
aa(lp1843
I78
aF0.5
aasg12
I981
sa(dp1844
g4
(lp1845
I1
aI4
aI3
aI0
aI2
aI5
asg6
VIs it bigger than a house?
p1846
sg8
(lp1847
I204
aI80
aI140
aI35
aI152
aI131
asg10
(lp1848
(lp1849
I78
aF1
aa(lp1850
I154
aF1
aasg12
I302
sa(dp1851
g4
(lp1852
I0
aI1
aI3
aI4
aI2
aI5
asg6
VIs it smaller than a house
p1853
sg8
(lp1854
I158
aI189
aI71
aI214
aI9
aI95
asg10
(lp1855
(lp1856
I148
aF1
aa(lp1857
I82
aF0.5
aasg12
I161
sa(dp1858
g4
(lp1859
I0
aI4
aI2
aI5
aI3
aI1
asg6
VIs it alive?
p1860
sg8
(lp1861
I211
aI23
aI34
aI92
aI145
aI6
asg10
(lp1862
(lp1863
I148
aF0
aa(lp1864
I205
aF-0.5
aasg12
I428
sa(dp1865
g4
(lp1866
I4
aI5
aI0
aI3
aI2
aI1
asg6
VIs it bigger than a house?
p1867
sg8
(lp1868
I150
aI21
aI65
aI186
aI151
aI132
asg10
(lp1869
(lp1870
I207
aF1
aa(lp1871
I82
aF1
aa(lp1872
I216
aF1
aa(lp1873
I181
aF1
aasg12
I564
sa(dp1874
g4
(lp1875
I2
aI4
aI3
aI1
aI5
aI0
asg6
VIs it bigger than a house?
p1876
sg8
(lp1877
I85
aI47
aI191
aI44
aI176
aI170
asg10
(lp1878
(lp1879
I181
aF-1
aa(lp1880
I86
aF1
aa(lp1881
I205
aF1
aa(lp1882
I88
aF1
aasg12
I777
sa(dp1883
g4
(lp1884
I1
aI3
aI2
aI0
aI5
aI4
asg6
VCould you live there?
p1885
sg8
(lp1886
I192
aI39
aI165
aI64
aI90
aI96
asg10
(lp1887
(lp1888
I86
aF1
aa(lp1889
I88
aF1
aa(lp1890
I168
aF1
aa(lp1891
I2
aF1
aasg12
I375
sa(dp1892
g4
(lp1893
I0
aI4
aI3
aI1
aI5
aI2
asg6
VIs it smaller than a human?
p1894
sg8
(lp1895
I129
aI164
aI29
aI135
aI100
aI17
asg10
(lp1896
(lp1897
I78
aF-1
aa(lp1898
I75
aF1
aa(lp1899
I0
aF1
aa(lp1900
I134
aF1
aasg12
I362
sa(dp1901
g4
(lp1902
I1
aI0
aI2
aI4
aI3
aI5
asg6
VDoes it have four legs?
p1903
sg8
(lp1904
I159
aI193
aI139
aI200
aI102
aI16
asg10
(lp1905
(lp1906
I76
aF1
aa(lp1907
I0
aF0
aa(lp1908
I63
aF1
aa(lp1909
I119
aF1
aa(lp1910
I91
aF-1
aa(lp1911
I134
aF1
aasg12
I285
sa(dp1912
g4
(lp1913
I2
aI3
aI0
aI1
aI4
aI5
asg6
VCan you hold it in one hand?
p1914
sg8
(lp1915
I146
aI123
aI103
aI212
aI87
aI3
asg10
(lp1916
(lp1917
I207
aF-0.5
aa(lp1918
I78
aF-1
aa(lp1919
I82
aF1
aa(lp1920
I76
aF1
aa(lp1921
I75
aF1
aa(lp1922
I69
aF0.5
aasg12
I703
sa(dp1923
g4
(lp1924
I3
aI0
aI1
aI2
aI4
aI5
asg6
VDoes it have legs?
p1925
sg8
(lp1926
I197
aI187
aI41
aI177
aI57
aI206
asg10
(lp1927
(lp1928
I82
aF1
aa(lp1929
I207
aF1
aa(lp1930
I205
aF-1
aa(lp1931
I216
aF1
aa(lp1932
I78
aF-1
aa(lp1933
I181
aF1
aasg12
I922
sa(dp1934
g4
(lp1935
I0
aI1
aI4
aI3
aI2
aI5
asg6
VIs it bigger than a breadbox?
p1936
sg8
(lp1937
I116
aI67
aI72
aI112
aI68
aI107
asg10
(lp1938
(lp1939
I78
aF0
aa(lp1940
I153
aF-1
aa(lp1941
I216
aF1
aa(lp1942
I168
aF1
aa(lp1943
I63
aF0.5
aa(lp1944
I143
aF1
aasg12
I13
saa(lp1945
(dp1946
g4
(lp1947
I5
aI2
aI0
aI4
aI1
aI3
asg6
VIs it plastic
p1948
sg8
(lp1949
I62
aI33
aI127
aI26
aI22
aI12
asg10
(lp1950
sg12
I310
sa(dp1951
g4
(lp1952
I3
aI2
aI4
aI0
aI1
aI5
asg6
VCan you eat it?
p1953
sg8
(lp1954
I38
aI149
aI196
aI56
aI163
aI98
asg10
(lp1955
(lp1956
I153
aF1
aa(lp1957
I78
aF0.5
aasg12
I981
sa(dp1958
g4
(lp1959
I2
aI1
aI3
aI4
aI0
aI5
asg6
Vdo you find it in the bathroom?
p1960
sg8
(lp1961
I204
aI80
aI140
aI35
aI152
aI131
asg10
(lp1962
(lp1963
I78
aF1
aa(lp1964
I154
aF1
aasg12
I302
sa(dp1965
g4
(lp1966
I1
aI4
aI2
aI0
aI3
aI5
asg6
VWould you find it in a house?
p1967
sg8
(lp1968
I158
aI189
aI71
aI214
aI9
aI95
asg10
(lp1969
(lp1970
I148
aF1
aa(lp1971
I82
aF0.5
aasg12
I161
sa(dp1972
g4
(lp1973
I3
aI5
aI4
aI2
aI1
aI0
asg6
VIs it round?
p1974
sg8
(lp1975
I211
aI23
aI34
aI92
aI145
aI6
asg10
(lp1976
(lp1977
I148
aF0
aa(lp1978
I205
aF-0.5
aasg12
I428
sa(dp1979
g4
(lp1980
I4
aI5
aI2
aI3
aI1
aI0
asg6
VIs it amphibious?
p1981
sg8
(lp1982
I150
aI21
aI65
aI186
aI151
aI132
asg10
(lp1983
(lp1984
I207
aF1
aa(lp1985
I82
aF1
aa(lp1986
I216
aF1
aa(lp1987
I181
aF1
aasg12
I564
sa(dp1988
g4
(lp1989
I2
aI5
aI0
aI1
aI3
aI4
asg6
VIs it alive?
p1990
sg8
(lp1991
I85
aI47
aI191
aI44
aI176
aI170
asg10
(lp1992
(lp1993
I181
aF-1
aa(lp1994
I86
aF1
aa(lp1995
I205
aF1
aa(lp1996
I88
aF1
aasg12
I777
sa(dp1997
g4
(lp1998
I4
aI3
aI0
aI2
aI1
aI5
asg6
VIs it a skyscraper?
p1999
sg8
(lp2000
I192
aI39
aI165
aI64
aI90
aI96
asg10
(lp2001
(lp2002
I86
aF1
aa(lp2003
I88
aF1
aa(lp2004
I168
aF1
aa(lp2005
I2
aF1
aasg12
I375
sa(dp2006
g4
(lp2007
I0
aI3
aI4
aI2
aI1
aI5
asg6
VDoes it live in the water?
p2008
sg8
(lp2009
I129
aI164
aI29
aI135
aI100
aI17
asg10
(lp2010
(lp2011
I78
aF-1
aa(lp2012
I75
aF1
aa(lp2013
I0
aF1
aa(lp2014
I134
aF1
aasg12
I362
sa(dp2015
g4
(lp2016
I1
aI5
aI0
aI3
aI4
aI2
asg6
VIs it dead?
p2017
sg8
(lp2018
I159
aI193
aI139
aI200
aI102
aI16
asg10
(lp2019
(lp2020
I76
aF1
aa(lp2021
I0
aF0
aa(lp2022
I63
aF1
aa(lp2023
I119
aF1
aa(lp2024
I91
aF-1
aa(lp2025
I134
aF1
aasg12
I285
sa(dp2026
g4
(lp2027
I2
aI1
aI3
aI5
aI4
aI0
asg6
VWould you find it in a house?
p2028
sg8
(lp2029
I146
aI123
aI103
aI212
aI87
aI3
asg10
(lp2030
(lp2031
I207
aF-0.5
aa(lp2032
I78
aF-1
aa(lp2033
I82
aF1
aa(lp2034
I76
aF1
aa(lp2035
I75
aF1
aa(lp2036
I69
aF0.5
aasg12
I703
sa(dp2037
g4
(lp2038
I3
aI2
aI0
aI5
aI1
aI4
asg6
VIs it alive?
p2039
sg8
(lp2040
I197
aI187
aI41
aI177
aI57
aI206
asg10
(lp2041
(lp2042
I82
aF1
aa(lp2043
I207
aF1
aa(lp2044
I205
aF-1
aa(lp2045
I216
aF1
aa(lp2046
I78
aF-1
aa(lp2047
I181
aF1
aasg12
I922
sa(dp2048
g4
(lp2049
I0
aI1
aI4
aI3
aI2
aI5
asg6
VDoes it have wheels?
p2050
sg8
(lp2051
I116
aI67
aI72
aI112
aI68
aI107
asg10
(lp2052
(lp2053
I78
aF0
aa(lp2054
I153
aF-1
aa(lp2055
I216
aF1
aa(lp2056
I168
aF1
aa(lp2057
I63
aF0.5
aa(lp2058
I143
aF1
aasg12
I13
saa(lp2059
(dp2060
g4
(lp2061
I2
aI0
aI4
aI3
aI1
aI5
asg6
VDo most people have one?
p2062
sg8
(lp2063
I62
aI33
aI127
aI26
aI22
aI12
asg10
(lp2064
sg12
I310
sa(dp2065
g4
(lp2066
I0
aI3
aI2
aI1
aI5
aI4
asg6
VIs it alive?
p2067
sg8
(lp2068
I38
aI149
aI196
aI56
aI163
aI98
asg10
(lp2069
(lp2070
I153
aF1
aa(lp2071
I78
aF0.5
aasg12
I981
sa(dp2072
g4
(lp2073
I1
aI3
aI2
aI4
aI0
aI5
asg6
VDoes it have a screen?
p2074
sg8
(lp2075
I204
aI80
aI140
aI35
aI152
aI131
asg10
(lp2076
(lp2077
I78
aF1
aa(lp2078
I154
aF1
aasg12
I302
sa(dp2079
g4
(lp2080
I4
aI0
aI1
aI3
aI5
aI2
asg6
VIs it man made?
p2081
sg8
(lp2082
I158
aI189
aI71
aI214
aI9
aI95
asg10
(lp2083
(lp2084
I148
aF1
aa(lp2085
I82
aF0.5
aasg12
I161
sa(dp2086
g4
(lp2087
I5
aI3
aI0
aI4
aI1
aI2
asg6
VIs it an animal?
p2088
sg8
(lp2089
I211
aI23
aI34
aI92
aI145
aI6
asg10
(lp2090
(lp2091
I148
aF0
aa(lp2092
I205
aF-0.5
aasg12
I428
sa(dp2093
g4
(lp2094
I4
aI2
aI1
aI0
aI3
aI5
asg6
VDoes you usually keep it in your pocket?
p2095
sg8
(lp2096
I150
aI21
aI65
aI186
aI151
aI132
asg10
(lp2097
(lp2098
I207
aF1
aa(lp2099
I82
aF1
aa(lp2100
I216
aF1
aa(lp2101
I181
aF1
aasg12
I564
sa(dp2102
g4
(lp2103
I1
aI2
aI3
aI4
aI5
aI0
asg6
VIs it a building?
p2104
sg8
(lp2105
I85
aI47
aI191
aI44
aI176
aI170
asg10
(lp2106
(lp2107
I181
aF-1
aa(lp2108
I86
aF1
aa(lp2109
I205
aF1
aa(lp2110
I88
aF1
aasg12
I777
sa(dp2111
g4
(lp2112
I3
aI1
aI2
aI0
aI4
aI5
asg6
VIs it in the USA?
p2113
sg8
(lp2114
I192
aI39
aI165
aI64
aI90
aI96
asg10
(lp2115
(lp2116
I86
aF1
aa(lp2117
I88
aF1
aa(lp2118
I168
aF1
aa(lp2119
I2
aF1
aasg12
I375
sa(dp2120
g4
(lp2121
I1
aI4
aI3
aI0
aI2
aI5
asg6
VIs it bigger than a dog?
p2122
sg8
(lp2123
I129
aI164
aI29
aI135
aI100
aI17
asg10
(lp2124
(lp2125
I78
aF-1
aa(lp2126
I75
aF1
aa(lp2127
I0
aF1
aa(lp2128
I134
aF1
aasg12
I362
sa(dp2129
g4
(lp2130
I1
aI2
aI3
aI4
aI0
aI5
asg6
VDoes it live in social groups?
p2131
sg8
(lp2132
I159
aI193
aI139
aI200
aI102
aI16
asg10
(lp2133
(lp2134
I76
aF1
aa(lp2135
I0
aF0
aa(lp2136
I63
aF1
aa(lp2137
I119
aF1
aa(lp2138
I91
aF-1
aa(lp2139
I134
aF1
aasg12
I285
sa(dp2140
g4
(lp2141
I2
aI4
aI1
aI5
aI0
aI3
asg6
VIs it an amphibian? 
p2142
sg8
(lp2143
I146
aI123
aI103
aI212
aI87
aI3
asg10
(lp2144
(lp2145
I207
aF-0.5
aa(lp2146
I78
aF-1
aa(lp2147
I82
aF1
aa(lp2148
I76
aF1
aa(lp2149
I75
aF1
aa(lp2150
I69
aF0.5
aasg12
I703
sa(dp2151
g4
(lp2152
I3
aI1
aI4
aI2
aI0
aI5
asg6
VIs it an object?
p2153
sg8
(lp2154
I197
aI187
aI41
aI177
aI57
aI206
asg10
(lp2155
(lp2156
I82
aF1
aa(lp2157
I207
aF1
aa(lp2158
I205
aF-1
aa(lp2159
I216
aF1
aa(lp2160
I78
aF-1
aa(lp2161
I181
aF1
aasg12
I922
sa(dp2162
g4
(lp2163
I3
aI0
aI2
aI5
aI4
aI1
asg6
VIs it alive?
p2164
sg8
(lp2165
I116
aI67
aI72
aI112
aI68
aI107
asg10
(lp2166
(lp2167
I78
aF0
aa(lp2168
I153
aF-1
aa(lp2169
I216
aF1
aa(lp2170
I168
aF1
aa(lp2171
I63
aF0.5
aa(lp2172
I143
aF1
aasg12
I13
saa(lp2173
(dp2174
g4
(lp2175
I0
aI5
aI4
aI1
aI3
aI2
asg6
VIs it alive
p2176
sg8
(lp2177
I62
aI33
aI127
aI26
aI22
aI12
asg10
(lp2178
sg12
I310
sa(dp2179
g4
(lp2180
I2
aI1
aI3
aI0
aI5
aI4
asg6
Vis it expensive
p2181
sg8
(lp2182
I38
aI149
aI196
aI56
aI163
aI98
asg10
(lp2183
(lp2184
I153
aF1
aa(lp2185
I78
aF0.5
aasg12
I981
sa(dp2186
g4
(lp2187
I3
aI2
aI1
aI0
aI5
aI4
asg6
VIs it heavy
p2188
sg8
(lp2189
I204
aI80
aI140
aI35
aI152
aI131
asg10
(lp2190
(lp2191
I78
aF1
aa(lp2192
I154
aF1
aasg12
I302
sa(dp2193
g4
(lp2194
I5
aI4
aI1
aI0
aI3
aI2
asg6
Vis it manufactured
p2195
sg8
(lp2196
I158
aI189
aI71
aI214
aI9
aI95
asg10
(lp2197
(lp2198
I148
aF1
aa(lp2199
I82
aF0.5
aasg12
I161
sa(dp2200
g4
(lp2201
I3
aI1
aI2
aI0
aI4
aI5
asg6
Vis it manufactured
p2202
sg8
(lp2203
I211
aI23
aI34
aI92
aI145
aI6
asg10
(lp2204
(lp2205
I148
aF0
aa(lp2206
I205
aF-0.5
aasg12
I428
sa(dp2207
g4
(lp2208
I3
aI1
aI5
aI4
aI2
aI0
asg6
Vis it red
p2209
sg8
(lp2210
I150
aI21
aI65
aI186
aI151
aI132
asg10
(lp2211
(lp2212
I207
aF1
aa(lp2213
I82
aF1
aa(lp2214
I216
aF1
aa(lp2215
I181
aF1
aasg12
I564
sa(dp2216
g4
(lp2217
I2
aI4
aI3
aI1
aI0
aI5
asg6
Vis it alive
p2218
sg8
(lp2219
I85
aI47
aI191
aI44
aI176
aI170
asg10
(lp2220
(lp2221
I181
aF-1
aa(lp2222
I86
aF1
aa(lp2223
I205
aF1
aa(lp2224
I88
aF1
aasg12
I777
sa(dp2225
g4
(lp2226
I0
aI1
aI3
aI2
aI4
aI5
asg6
Vis it tall
p2227
sg8
(lp2228
I192
aI39
aI165
aI64
aI90
aI96
asg10
(lp2229
(lp2230
I86
aF1
aa(lp2231
I88
aF1
aa(lp2232
I168
aF1
aa(lp2233
I2
aF1
aasg12
I375
sa(dp2234
g4
(lp2235
I0
aI4
aI2
aI1
aI3
aI5
asg6
Vcan it fly
p2236
sg8
(lp2237
I129
aI164
aI29
aI135
aI100
aI17
asg10
(lp2238
(lp2239
I78
aF-1
aa(lp2240
I75
aF1
aa(lp2241
I0
aF1
aa(lp2242
I134
aF1
aasg12
I362
sa(dp2243
g4
(lp2244
I1
aI2
aI0
aI5
aI3
aI4
asg6
Vdoes it stand on legs
p2245
sg8
(lp2246
I159
aI193
aI139
aI200
aI102
aI16
asg10
(lp2247
(lp2248
I76
aF1
aa(lp2249
I0
aF0
aa(lp2250
I63
aF1
aa(lp2251
I119
aF1
aa(lp2252
I91
aF-1
aa(lp2253
I134
aF1
aasg12
I285
sa(dp2254
g4
(lp2255
I2
aI1
aI4
aI3
aI0
aI5
asg6
VCan if fly?
p2256
sg8
(lp2257
I146
aI123
aI103
aI212
aI87
aI3
asg10
(lp2258
(lp2259
I207
aF-0.5
aa(lp2260
I78
aF-1
aa(lp2261
I82
aF1
aa(lp2262
I76
aF1
aa(lp2263
I75
aF1
aa(lp2264
I69
aF0.5
aasg12
I703
sa(dp2265
g4
(lp2266
I2
aI0
aI4
aI3
aI1
aI5
asg6
Vcan it fly
p2267
sg8
(lp2268
I197
aI187
aI41
aI177
aI57
aI206
asg10
(lp2269
(lp2270
I82
aF1
aa(lp2271
I207
aF1
aa(lp2272
I205
aF-1
aa(lp2273
I216
aF1
aa(lp2274
I78
aF-1
aa(lp2275
I181
aF1
aasg12
I922
sa(dp2276
g4
(lp2277
I1
aI4
aI0
aI3
aI2
aI5
asg6
VIs it made of wood
p2278
sg8
(lp2279
I116
aI67
aI72
aI112
aI68
aI107
asg10
(lp2280
(lp2281
I78
aF0
aa(lp2282
I153
aF-1
aa(lp2283
I216
aF1
aa(lp2284
I168
aF1
aa(lp2285
I63
aF0.5
aa(lp2286
I143
aF1
aasg12
I13
saa(lp2287
(dp2288
g4
(lp2289
I5
aI1
aI3
aI4
aI0
aI2
asg6
VDoes it have a face?
p2290
sg8
(lp2291
I62
aI33
aI127
aI26
aI22
aI12
asg10
(lp2292
sg12
I310
sa(dp2293
g4
(lp2294
I0
aI1
aI2
aI3
aI5
aI4
asg6
VDo people wear it?
p2295
sg8
(lp2296
I38
aI149
aI196
aI56
aI163
aI98
asg10
(lp2297
(lp2298
I153
aF1
aa(lp2299
I78
aF0.5
aasg12
I981
sa(dp2300
g4
(lp2301
I2
aI3
aI4
aI0
aI5
aI1
asg6
VIs it battery operated?
p2302
sg8
(lp2303
I204
aI80
aI140
aI35
aI152
aI131
asg10
(lp2304
(lp2305
I78
aF1
aa(lp2306
I154
aF1
aasg12
I302
sa(dp2307
g4
(lp2308
I1
aI4
aI5
aI3
aI2
aI0
asg6
VIs it alive?
p2309
sg8
(lp2310
I158
aI189
aI71
aI214
aI9
aI95
asg10
(lp2311
(lp2312
I148
aF1
aa(lp2313
I82
aF0.5
aasg12
I161
sa(dp2314
g4
(lp2315
I4
aI3
aI2
aI0
aI1
aI5
asg6
VCan it be held with one hand?
p2316
sg8
(lp2317
I211
aI23
aI34
aI92
aI145
aI6
asg10
(lp2318
(lp2319
I148
aF0
aa(lp2320
I205
aF-0.5
aasg12
I428
sa(dp2321
g4
(lp2322
I5
aI3
aI2
aI0
aI1
aI4
asg6
VIs it alive?
p2323
sg8
(lp2324
I150
aI21
aI65
aI186
aI151
aI132
asg10
(lp2325
(lp2326
I207
aF1
aa(lp2327
I82
aF1
aa(lp2328
I216
aF1
aa(lp2329
I181
aF1
aasg12
I564
sa(dp2330
g4
(lp2331
I1
aI2
aI3
aI4
aI0
aI5
asg6
VDo people go inside it?
p2332
sg8
(lp2333
I85
aI47
aI191
aI44
aI176
aI170
asg10
(lp2334
(lp2335
I181
aF-1
aa(lp2336
I86
aF1
aa(lp2337
I205
aF1
aa(lp2338
I88
aF1
aasg12
I777
sa(dp2339
g4
(lp2340
I1
aI5
aI2
aI3
aI0
aI4
asg6
VIs it a government building?
p2341
sg8
(lp2342
I192
aI39
aI165
aI64
aI90
aI96
asg10
(lp2343
(lp2344
I86
aF1
aa(lp2345
I88
aF1
aa(lp2346
I168
aF1
aa(lp2347
I2
aF1
aasg12
I375
sa(dp2348
g4
(lp2349
I0
aI3
aI1
aI2
aI4
aI5
asg6
VCan it be a pet?
p2350
sg8
(lp2351
I129
aI164
aI29
aI135
aI100
aI17
asg10
(lp2352
(lp2353
I78
aF-1
aa(lp2354
I75
aF1
aa(lp2355
I0
aF1
aa(lp2356
I134
aF1
aasg12
I362
sa(dp2357
g4
(lp2358
I1
aI3
aI2
aI4
aI0
aI5
asg6
VIs it domesticated?
p2359
sg8
(lp2360
I159
aI193
aI139
aI200
aI102
aI16
asg10
(lp2361
(lp2362
I76
aF1
aa(lp2363
I0
aF0
aa(lp2364
I63
aF1
aa(lp2365
I119
aF1
aa(lp2366
I91
aF-1
aa(lp2367
I134
aF1
aasg12
I285
sa(dp2368
g4
(lp2369
I2
aI4
aI1
aI3
aI0
aI5
asg6
VDoes it have sharp teeth?
p2370
sg8
(lp2371
I146
aI123
aI103
aI212
aI87
aI3
asg10
(lp2372
(lp2373
I207
aF-0.5
aa(lp2374
I78
aF-1
aa(lp2375
I82
aF1
aa(lp2376
I76
aF1
aa(lp2377
I75
aF1
aa(lp2378
I69
aF0.5
aasg12
I703
sa(dp2379
g4
(lp2380
I0
aI4
aI3
aI2
aI1
aI5
asg6
VIs it a pet?
p2381
sg8
(lp2382
I197
aI187
aI41
aI177
aI57
aI206
asg10
(lp2383
(lp2384
I82
aF1
aa(lp2385
I207
aF1
aa(lp2386
I205
aF-1
aa(lp2387
I216
aF1
aa(lp2388
I78
aF-1
aa(lp2389
I181
aF1
aasg12
I922
sa(dp2390
g4
(lp2391
I0
aI3
aI1
aI2
aI4
aI5
asg6
VIs it usually outside?
p2392
sg8
(lp2393
I116
aI67
aI72
aI112
aI68
aI107
asg10
(lp2394
(lp2395
I78
aF0
aa(lp2396
I153
aF-1
aa(lp2397
I216
aF1
aa(lp2398
I168
aF1
aa(lp2399
I63
aF0.5
aa(lp2400
I143
aF1
aasg12
I13
saa(lp2401
(dp2402
g4
(lp2403
I0
aI2
aI5
aI4
aI3
aI1
asg6
VCAN YOU WEAR IT ON YOUR BODY?
p2404
sg8
(lp2405
I62
aI33
aI127
aI26
aI22
aI12
asg10
(lp2406
sg12
I310
sa(dp2407
g4
(lp2408
I2
aI0
aI4
aI1
aI3
aI5
asg6
VDOES IT REQUIRES ENERGY TO OPERATE?
p2409
sg8
(lp2410
I38
aI149
aI196
aI56
aI163
aI98
asg10
(lp2411
(lp2412
I153
aF1
aa(lp2413
I78
aF0.5
aasg12
I981
sa(dp2414
g4
(lp2415
I3
aI2
aI1
aI4
aI0
aI5
asg6
VIS IT USUALLY USED OUTSIDE OF THE BATHROOM?
p2416
sg8
(lp2417
I204
aI80
aI140
aI35
aI152
aI131
asg10
(lp2418
(lp2419
I78
aF1
aa(lp2420
I154
aF1
aasg12
I302
sa(dp2421
g4
(lp2422
I4
aI1
aI0
aI2
aI5
aI3
asg6
VIS IT HEAVY?
p2423
sg8
(lp2424
I158
aI189
aI71
aI214
aI9
aI95
asg10
(lp2425
(lp2426
I148
aF1
aa(lp2427
I82
aF0.5
aasg12
I161
sa(dp2428
g4
(lp2429
I0
aI3
aI5
aI1
aI2
aI4
asg6
VDO YOU NORMALLY HOLD IT IN ONE HAND TO USE IT?
p2430
sg8
(lp2431
I211
aI23
aI34
aI92
aI145
aI6
asg10
(lp2432
(lp2433
I148
aF0
aa(lp2434
I205
aF-0.5
aasg12
I428
sa(dp2435
g4
(lp2436
I2
aI4
aI1
aI0
aI3
aI5
asg6
VCAN YOU HOLD IT IN ONE HAND?
p2437
sg8
(lp2438
I150
aI21
aI65
aI186
aI151
aI132
asg10
(lp2439
(lp2440
I207
aF1
aa(lp2441
I82
aF1
aa(lp2442
I216
aF1
aa(lp2443
I181
aF1
aasg12
I564
sa(dp2444
g4
(lp2445
I1
aI2
aI3
aI4
aI0
aI5
asg6
VIS IT HEIGHT TALLER THAN IT WIDTH?
p2446
sg8
(lp2447
I85
aI47
aI191
aI44
aI176
aI170
asg10
(lp2448
(lp2449
I181
aF-1
aa(lp2450
I86
aF1
aa(lp2451
I205
aF1
aa(lp2452
I88
aF1
aasg12
I777
sa(dp2453
g4
(lp2454
I1
aI0
aI3
aI2
aI5
aI4
asg6
VCAN YOU BUY THINGS WHEN INSIDE OF IT?
p2455
sg8
(lp2456
I192
aI39
aI165
aI64
aI90
aI96
asg10
(lp2457
(lp2458
I86
aF1
aa(lp2459
I88
aF1
aa(lp2460
I168
aF1
aa(lp2461
I2
aF1
aasg12
I375
sa(dp2462
g4
(lp2463
I0
aI4
aI3
aI2
aI1
aI5
asg6
VCAN YOU CARRY IT IN YOUR ARMS?
p2464
sg8
(lp2465
I129
aI164
aI29
aI135
aI100
aI17
asg10
(lp2466
(lp2467
I78
aF-1
aa(lp2468
I75
aF1
aa(lp2469
I0
aF1
aa(lp2470
I134
aF1
aasg12
I362
sa(dp2471
g4
(lp2472
I2
aI1
aI5
aI0
aI3
aI4
asg6
VIS IT A HUMAN?
p2473
sg8
(lp2474
I159
aI193
aI139
aI200
aI102
aI16
asg10
(lp2475
(lp2476
I76
aF1
aa(lp2477
I0
aF0
aa(lp2478
I63
aF1
aa(lp2479
I119
aF1
aa(lp2480
I91
aF-1
aa(lp2481
I134
aF1
aasg12
I285
sa(dp2482
g4
(lp2483
I4
aI2
aI1
aI3
aI0
aI5
asg6
VDOES IT HAVE 4 LEGS?
p2484
sg8
(lp2485
I146
aI123
aI103
aI212
aI87
aI3
asg10
(lp2486
(lp2487
I207
aF-0.5
aa(lp2488
I78
aF-1
aa(lp2489
I82
aF1
aa(lp2490
I76
aF1
aa(lp2491
I75
aF1
aa(lp2492
I69
aF0.5
aasg12
I703
sa(dp2493
g4
(lp2494
I2
aI4
aI1
aI0
aI3
aI5
asg6
VDO YOU HOLD IT IN YOUR HANDS TO USE IT?
p2495
sg8
(lp2496
I197
aI187
aI41
aI177
aI57
aI206
asg10
(lp2497
(lp2498
I82
aF1
aa(lp2499
I207
aF1
aa(lp2500
I205
aF-1
aa(lp2501
I216
aF1
aa(lp2502
I78
aF-1
aa(lp2503
I181
aF1
aasg12
I922
sa(dp2504
g4
(lp2505
I0
aI1
aI4
aI2
aI3
aI5
asg6
VIS IT BIGGER THAN A SOFA?
p2506
sg8
(lp2507
I116
aI67
aI72
aI112
aI68
aI107
asg10
(lp2508
(lp2509
I78
aF0
aa(lp2510
I153
aF-1
aa(lp2511
I216
aF1
aa(lp2512
I168
aF1
aa(lp2513
I63
aF0.5
aa(lp2514
I143
aF1
aasg12
I13
saa(lp2515
(dp2516
g4
(lp2517
I2
aI4
aI0
aI1
aI3
aI5
asg6
VIs it alive?
p2518
sg8
(lp2519
I62
aI33
aI127
aI26
aI22
aI12
asg10
(lp2520
sg12
I310
sa(dp2521
g4
(lp2522
I3
aI1
aI4
aI0
aI2
aI5
asg6
VCan it be eaten?
p2523
sg8
(lp2524
I38
aI149
aI196
aI56
aI163
aI98
asg10
(lp2525
(lp2526
I153
aF1
aa(lp2527
I78
aF0.5
aasg12
I981
sa(dp2528
g4
(lp2529
I3
aI2
aI1
aI5
aI0
aI4
asg6
VIs it clothes?
p2530
sg8
(lp2531
I204
aI80
aI140
aI35
aI152
aI131
asg10
(lp2532
(lp2533
I78
aF1
aa(lp2534
I154
aF1
aasg12
I302
sa(dp2535
g4
(lp2536
I4
aI2
aI0
aI1
aI3
aI5
asg6
VIs it alive?
p2537
sg8
(lp2538
I158
aI189
aI71
aI214
aI9
aI95
asg10
(lp2539
(lp2540
I148
aF1
aa(lp2541
I82
aF0.5
aasg12
I161
sa(dp2542
g4
(lp2543
I3
aI5
aI1
aI2
aI4
aI0
asg6
VIs it alive?
p2544
sg8
(lp2545
I211
aI23
aI34
aI92
aI145
aI6
asg10
(lp2546
(lp2547
I148
aF0
aa(lp2548
I205
aF-0.5
aasg12
I428
sa(dp2549
g4
(lp2550
I5
aI1
aI0
aI4
aI3
aI2
asg6
VIs it alive?
p2551
sg8
(lp2552
I150
aI21
aI65
aI186
aI151
aI132
asg10
(lp2553
(lp2554
I207
aF1
aa(lp2555
I82
aF1
aa(lp2556
I216
aF1
aa(lp2557
I181
aF1
aasg12
I564
sa(dp2558
g4
(lp2559
I1
aI2
aI3
aI0
aI4
aI5
asg6
VIs it stuck to the ground?
p2560
sg8
(lp2561
I85
aI47
aI191
aI44
aI176
aI170
asg10
(lp2562
(lp2563
I181
aF-1
aa(lp2564
I86
aF1
aa(lp2565
I205
aF1
aa(lp2566
I88
aF1
aasg12
I777
sa(dp2567
g4
(lp2568
I1
aI0
aI2
aI4
aI5
aI3
asg6
VDo people live in it?
p2569
sg8
(lp2570
I192
aI39
aI165
aI64
aI90
aI96
asg10
(lp2571
(lp2572
I86
aF1
aa(lp2573
I88
aF1
aa(lp2574
I168
aF1
aa(lp2575
I2
aF1
aasg12
I375
sa(dp2576
g4
(lp2577
I0
aI3
aI4
aI1
aI2
aI5
asg6
VIs it bigger than a dog?
p2578
sg8
(lp2579
I129
aI164
aI29
aI135
aI100
aI17
asg10
(lp2580
(lp2581
I78
aF-1
aa(lp2582
I75
aF1
aa(lp2583
I0
aF1
aa(lp2584
I134
aF1
aasg12
I362
sa(dp2585
g4
(lp2586
I4
aI1
aI2
aI3
aI0
aI5
asg6
VDoes it speak?
p2587
sg8
(lp2588
I159
aI193
aI139
aI200
aI102
aI16
asg10
(lp2589
(lp2590
I76
aF1
aa(lp2591
I0
aF0
aa(lp2592
I63
aF1
aa(lp2593
I119
aF1
aa(lp2594
I91
aF-1
aa(lp2595
I134
aF1
aasg12
I285
sa(dp2596
g4
(lp2597
I3
aI1
aI4
aI0
aI2
aI5
asg6
VIs it bigger than a dog?
p2598
sg8
(lp2599
I146
aI123
aI103
aI212
aI87
aI3
asg10
(lp2600
(lp2601
I207
aF-0.5
aa(lp2602
I78
aF-1
aa(lp2603
I82
aF1
aa(lp2604
I76
aF1
aa(lp2605
I75
aF1
aa(lp2606
I69
aF0.5
aasg12
I703
sa(dp2607
g4
(lp2608
I2
aI4
aI0
aI1
aI3
aI5
asg6
VIs it alive?
p2609
sg8
(lp2610
I197
aI187
aI41
aI177
aI57
aI206
asg10
(lp2611
(lp2612
I82
aF1
aa(lp2613
I207
aF1
aa(lp2614
I205
aF-1
aa(lp2615
I216
aF1
aa(lp2616
I78
aF-1
aa(lp2617
I181
aF1
aasg12
I922
sa(dp2618
g4
(lp2619
I0
aI4
aI1
aI2
aI3
aI5
asg6
VIs it a building?
p2620
sg8
(lp2621
I116
aI67
aI72
aI112
aI68
aI107
asg10
(lp2622
(lp2623
I78
aF0
aa(lp2624
I153
aF-1
aa(lp2625
I216
aF1
aa(lp2626
I168
aF1
aa(lp2627
I63
aF0.5
aa(lp2628
I143
aF1
aasg12
I13
saa(lp2629
(dp2630
g4
(lp2631
I0
aI5
aI2
aI4
aI1
aI3
asg6
VIs it mechanical?
p2632
sg8
(lp2633
I62
aI33
aI127
aI26
aI22
aI12
asg10
(lp2634
sg12
I310
sa(dp2635
g4
(lp2636
I1
aI3
aI2
aI4
aI0
aI5
asg6
VCan you buy it easily?
p2637
sg8
(lp2638
I38
aI149
aI196
aI56
aI163
aI98
asg10
(lp2639
(lp2640
I153
aF1
aa(lp2641
I78
aF0.5
aasg12
I981
sa(dp2642
g4
(lp2643
I2
aI3
aI4
aI1
aI5
aI0
asg6
VIs it a tool?
p2644
sg8
(lp2645
I204
aI80
aI140
aI35
aI152
aI131
asg10
(lp2646
(lp2647
I78
aF1
aa(lp2648
I154
aF1
aasg12
I302
sa(dp2649
g4
(lp2650
I4
aI0
aI1
aI3
aI5
aI2
asg6
VIs it living?
p2651
sg8
(lp2652
I158
aI189
aI71
aI214
aI9
aI95
asg10
(lp2653
(lp2654
I148
aF1
aa(lp2655
I82
aF0.5
aasg12
I161
sa(dp2656
g4
(lp2657
I5
aI3
aI0
aI2
aI4
aI1
asg6
VIs it electronic?
p2658
sg8
(lp2659
I211
aI23
aI34
aI92
aI145
aI6
asg10
(lp2660
(lp2661
I148
aF0
aa(lp2662
I205
aF-0.5
aasg12
I428
sa(dp2663
g4
(lp2664
I2
aI5
aI0
aI4
aI1
aI3
asg6
VIs it easy to buy?
p2665
sg8
(lp2666
I150
aI21
aI65
aI186
aI151
aI132
asg10
(lp2667
(lp2668
I207
aF1
aa(lp2669
I82
aF1
aa(lp2670
I216
aF1
aa(lp2671
I181
aF1
aasg12
I564
sa(dp2672
g4
(lp2673
I2
aI3
aI1
aI5
aI4
aI0
asg6
VIs it living?
p2674
sg8
(lp2675
I85
aI47
aI191
aI44
aI176
aI170
asg10
(lp2676
(lp2677
I181
aF-1
aa(lp2678
I86
aF1
aa(lp2679
I205
aF1
aa(lp2680
I88
aF1
aasg12
I777
sa(dp2681
g4
(lp2682
I3
aI1
aI2
aI0
aI4
aI5
asg6
VIs it old?
p2683
sg8
(lp2684
I192
aI39
aI165
aI64
aI90
aI96
asg10
(lp2685
(lp2686
I86
aF1
aa(lp2687
I88
aF1
aa(lp2688
I168
aF1
aa(lp2689
I2
aF1
aasg12
I375
sa(dp2690
g4
(lp2691
I0
aI3
aI1
aI2
aI4
aI5
asg6
VIs it smart?
p2692
sg8
(lp2693
I129
aI164
aI29
aI135
aI100
aI17
asg10
(lp2694
(lp2695
I78
aF-1
aa(lp2696
I75
aF1
aa(lp2697
I0
aF1
aa(lp2698
I134
aF1
aasg12
I362
sa(dp2699
g4
(lp2700
I1
aI3
aI2
aI4
aI0
aI5
asg6
VDoes it have two legs?
p2701
sg8
(lp2702
I159
aI193
aI139
aI200
aI102
aI16
asg10
(lp2703
(lp2704
I76
aF1
aa(lp2705
I0
aF0
aa(lp2706
I63
aF1
aa(lp2707
I119
aF1
aa(lp2708
I91
aF-1
aa(lp2709
I134
aF1
aasg12
I285
sa(dp2710
g4
(lp2711
I1
aI2
aI4
aI0
aI3
aI5
asg6
VIs it a reptile?
p2712
sg8
(lp2713
I146
aI123
aI103
aI212
aI87
aI3
asg10
(lp2714
(lp2715
I207
aF-0.5
aa(lp2716
I78
aF-1
aa(lp2717
I82
aF1
aa(lp2718
I76
aF1
aa(lp2719
I75
aF1
aa(lp2720
I69
aF0.5
aasg12
I703
sa(dp2721
g4
(lp2722
I0
aI3
aI4
aI2
aI1
aI5
asg6
VIs it living?
p2723
sg8
(lp2724
I197
aI187
aI41
aI177
aI57
aI206
asg10
(lp2725
(lp2726
I82
aF1
aa(lp2727
I207
aF1
aa(lp2728
I205
aF-1
aa(lp2729
I216
aF1
aa(lp2730
I78
aF-1
aa(lp2731
I181
aF1
aasg12
I922
sa(dp2732
g4
(lp2733
I1
aI4
aI3
aI0
aI2
aI5
asg6
VIs it mechanical?
p2734
sg8
(lp2735
I116
aI67
aI72
aI112
aI68
aI107
asg10
(lp2736
(lp2737
I78
aF0
aa(lp2738
I153
aF-1
aa(lp2739
I216
aF1
aa(lp2740
I168
aF1
aa(lp2741
I63
aF0.5
aa(lp2742
I143
aF1
aasg12
I13
saa.