(lp1
(lp2
(dp3
S'rankings'
p4
(lp5
I2
aI3
aI4
aI1
aI0
aI5
asS'quest_freeform'
p6
VIs it large?
p7
sS'ranked_choices'
p8
(lp9
I62
aI33
aI127
aI26
aI22
aI12
asS'question_answer_pairs'
p10
(lp11
sS'item'
p12
I310
sa(dp13
g4
(lp14
I5
aI0
aI1
aI4
aI3
aI2
asg6
VIs it an animal?
p15
sg8
(lp16
I62
aI33
aI127
aI26
aI22
aI12
asg10
(lp17
sg12
I310
sa(dp18
g4
(lp19
I0
aI5
aI2
aI4
aI3
aI1
asg6
Vit is easliy moveable 
p20
sg8
(lp21
I62
aI33
aI127
aI26
aI22
aI12
asg10
(lp22
sg12
I310
sa(dp23
g4
(lp24
I0
aI4
aI2
aI1
aI3
aI5
asg6
VIs it alive?
p25
sg8
(lp26
I62
aI33
aI127
aI26
aI22
aI12
asg10
(lp27
sg12
I310
sa(dp28
g4
(lp29
I0
aI5
aI2
aI3
aI1
aI4
asg6
Vis it or has it been alive?
p30
sg8
(lp31
I62
aI33
aI127
aI26
aI22
aI12
asg10
(lp32
sg12
I310
sa(dp33
g4
(lp34
I0
aI5
aI1
aI3
aI2
aI4
asg6
Vis it alive?
p35
sg8
(lp36
I62
aI33
aI127
aI26
aI22
aI12
asg10
(lp37
sg12
I310
sa(dp38
g4
(lp39
I1
aI3
aI4
aI0
aI2
aI5
asg6
VIs it alive?
p40
sg8
(lp41
I62
aI33
aI127
aI26
aI22
aI12
asg10
(lp42
sg12
I310
sa(dp43
g4
(lp44
I2
aI3
aI1
aI5
aI0
aI4
asg6
VIs it alive?
p45
sg8
(lp46
I62
aI33
aI127
aI26
aI22
aI12
asg10
(lp47
sg12
I310
sa(dp48
g4
(lp49
I5
aI0
aI2
aI4
aI3
aI1
asg6
VIs it alive?
p50
sg8
(lp51
I62
aI33
aI127
aI26
aI22
aI12
asg10
(lp52
sg12
I310
sa(dp53
g4
(lp54
I0
aI2
aI4
aI5
aI1
aI3
asg6
VIs it alive?
p55
sg8
(lp56
I62
aI33
aI127
aI26
aI22
aI12
asg10
(lp57
sg12
I310
sa(dp58
g4
(lp59
I2
aI4
aI0
aI1
aI5
aI3
asg6
VIs it bigger than a microwave oven?
p60
sg8
(lp61
I62
aI33
aI127
aI26
aI22
aI12
asg10
(lp62
sg12
I310
sa(dp63
g4
(lp64
I3
aI1
aI0
aI4
aI2
aI5
asg6
VIs it a triangle?
p65
sg8
(lp66
I62
aI33
aI127
aI26
aI22
aI12
asg10
(lp67
sg12
I310
sa(dp68
g4
(lp69
I5
aI3
aI0
aI4
aI1
aI2
asg6
VIs it living
p70
sg8
(lp71
I62
aI33
aI127
aI26
aI22
aI12
asg10
(lp72
sg12
I310
sa(dp73
g4
(lp74
I0
aI2
aI4
aI3
aI1
aI5
asg6
VDoes it have black shading?
p75
sg8
(lp76
I62
aI33
aI127
aI26
aI22
aI12
asg10
(lp77
sg12
I310
sa(dp78
g4
(lp79
I2
aI3
aI0
aI4
aI1
aI5
asg6
VIs it alive?
p80
sg8
(lp81
I62
aI33
aI127
aI26
aI22
aI12
asg10
(lp82
sg12
I310
sa(dp83
g4
(lp84
I5
aI3
aI0
aI1
aI2
aI4
asg6
VIs it an animal?
p85
sg8
(lp86
I62
aI33
aI127
aI26
aI22
aI12
asg10
(lp87
sg12
I310
sa(dp88
g4
(lp89
I0
aI2
aI1
aI3
aI5
aI4
asg6
VIs it bigger than a breadbox?
p90
sg8
(lp91
I62
aI33
aI127
aI26
aI22
aI12
asg10
(lp92
sg12
I310
sa(dp93
g4
(lp94
I5
aI2
aI0
aI4
aI1
aI3
asg6
VIs it plastic
p95
sg8
(lp96
I62
aI33
aI127
aI26
aI22
aI12
asg10
(lp97
sg12
I310
sa(dp98
g4
(lp99
I2
aI0
aI4
aI3
aI1
aI5
asg6
VDo most people have one?
p100
sg8
(lp101
I62
aI33
aI127
aI26
aI22
aI12
asg10
(lp102
sg12
I310
sa(dp103
g4
(lp104
I0
aI5
aI4
aI1
aI3
aI2
asg6
VIs it alive
p105
sg8
(lp106
I62
aI33
aI127
aI26
aI22
aI12
asg10
(lp107
sg12
I310
sa(dp108
g4
(lp109
I5
aI1
aI3
aI4
aI0
aI2
asg6
VDoes it have a face?
p110
sg8
(lp111
I62
aI33
aI127
aI26
aI22
aI12
asg10
(lp112
sg12
I310
sa(dp113
g4
(lp114
I0
aI2
aI5
aI4
aI3
aI1
asg6
VCAN YOU WEAR IT ON YOUR BODY?
p115
sg8
(lp116
I62
aI33
aI127
aI26
aI22
aI12
asg10
(lp117
sg12
I310
sa(dp118
g4
(lp119
I2
aI4
aI0
aI1
aI3
aI5
asg6
VIs it alive?
p120
sg8
(lp121
I62
aI33
aI127
aI26
aI22
aI12
asg10
(lp122
sg12
I310
sa(dp123
g4
(lp124
I0
aI5
aI2
aI4
aI1
aI3
asg6
VIs it mechanical?
p125
sg8
(lp126
I62
aI33
aI127
aI26
aI22
aI12
asg10
(lp127
sg12
I310
saa(lp128
(dp129
g4
(lp130
I4
aI1
aI2
aI5
aI3
aI0
asg6
VCan you buy it?
p131
sg8
(lp132
I38
aI149
aI196
aI56
aI163
aI98
asg10
(lp133
(lp134
I153
aF1
aa(lp135
I78
aF0.5
aasg12
I981
sa(dp136
g4
(lp137
I4
aI0
aI3
aI1
aI2
aI5
asg6
VIs it a tool?
p138
sg8
(lp139
I38
aI149
aI196
aI56
aI163
aI98
asg10
(lp140
(lp141
I153
aF1
aa(lp142
I78
aF0.5
aasg12
I981
sa(dp143
g4
(lp144
I2
aI1
aI4
aI3
aI5
aI0
asg6
Vdoes it have moving parts
p145
sg8
(lp146
I38
aI149
aI196
aI56
aI163
aI98
asg10
(lp147
(lp148
I153
aF1
aa(lp149
I78
aF0.5
aasg12
I981
sa(dp150
g4
(lp151
I1
aI3
aI4
aI2
aI0
aI5
asg6
VIs it a phone?
p152
sg8
(lp153
I38
aI149
aI196
aI56
aI163
aI98
asg10
(lp154
(lp155
I153
aF1
aa(lp156
I78
aF0.5
aasg12
I981
sa(dp157
g4
(lp158
I1
aI0
aI3
aI2
aI4
aI5
asg6
Vis it plastic?
p159
sg8
(lp160
I38
aI149
aI196
aI56
aI163
aI98
asg10
(lp161
(lp162
I153
aF1
aa(lp163
I78
aF0.5
aasg12
I981
sa(dp164
g4
(lp165
I2
aI0
aI1
aI3
aI5
aI4
asg6
Vis it for females
p166
sg8
(lp167
I38
aI149
aI196
aI56
aI163
aI98
asg10
(lp168
(lp169
I153
aF1
aa(lp170
I78
aF0.5
aasg12
I981
sa(dp171
g4
(lp172
I2
aI3
aI4
aI0
aI1
aI5
asg6
VIs it alive?
p173
sg8
(lp174
I38
aI149
aI196
aI56
aI163
aI98
asg10
(lp175
(lp176
I153
aF1
aa(lp177
I78
aF0.5
aasg12
I981
sa(dp178
g4
(lp179
I2
aI0
aI1
aI4
aI3
aI5
asg6
Vis it a tool
p180
sg8
(lp181
I38
aI149
aI196
aI56
aI163
aI98
asg10
(lp182
(lp183
I153
aF1
aa(lp184
I78
aF0.5
aasg12
I981
sa(dp185
g4
(lp186
I2
aI1
aI0
aI3
aI5
aI4
asg6
VDo you use it inside?
p187
sg8
(lp188
I38
aI149
aI196
aI56
aI163
aI98
asg10
(lp189
(lp190
I153
aF1
aa(lp191
I78
aF0.5
aasg12
I981
sa(dp192
g4
(lp193
I1
aI0
aI2
aI3
aI4
aI5
asg6
VIs it made of metal?
p194
sg8
(lp195
I38
aI149
aI196
aI56
aI163
aI98
asg10
(lp196
(lp197
I153
aF1
aa(lp198
I78
aF0.5
aasg12
I981
sa(dp199
g4
(lp200
I1
aI0
aI2
aI5
aI4
aI3
asg6
VIs it alive?
p201
sg8
(lp202
I38
aI149
aI196
aI56
aI163
aI98
asg10
(lp203
(lp204
I153
aF1
aa(lp205
I78
aF0.5
aasg12
I981
sa(dp206
g4
(lp207
I2
aI1
aI3
aI0
aI4
aI5
asg6
Vwhat is it's name?
p208
sg8
(lp209
I38
aI149
aI196
aI56
aI163
aI98
asg10
(lp210
(lp211
I153
aF1
aa(lp212
I78
aF0.5
aasg12
I981
sa(dp213
g4
(lp214
I2
aI4
aI1
aI0
aI3
aI5
asg6
VIs it a tool?
p215
sg8
(lp216
I38
aI149
aI196
aI56
aI163
aI98
asg10
(lp217
(lp218
I153
aF1
aa(lp219
I78
aF0.5
aasg12
I981
sa(dp220
g4
(lp221
I1
aI2
aI4
aI0
aI3
aI5
asg6
VWhat color is it
p222
sg8
(lp223
I38
aI149
aI196
aI56
aI163
aI98
asg10
(lp224
(lp225
I153
aF1
aa(lp226
I78
aF0.5
aasg12
I981
sa(dp227
g4
(lp228
I3
aI2
aI4
aI1
aI0
aI5
asg6
VCan you buy it at a grocery store?
p229
sg8
(lp230
I38
aI149
aI196
aI56
aI163
aI98
asg10
(lp231
(lp232
I153
aF1
aa(lp233
I78
aF0.5
aasg12
I981
sa(dp234
g4
(lp235
I4
aI1
aI0
aI3
aI5
aI2
asg6
VIs it an animal?
p236
sg8
(lp237
I38
aI149
aI196
aI56
aI163
aI98
asg10
(lp238
(lp239
I153
aF1
aa(lp240
I78
aF0.5
aasg12
I981
sa(dp241
g4
(lp242
I2
aI3
aI1
aI4
aI0
aI5
asg6
VIs it alive?
p243
sg8
(lp244
I38
aI149
aI196
aI56
aI163
aI98
asg10
(lp245
(lp246
I153
aF1
aa(lp247
I78
aF0.5
aasg12
I981
sa(dp248
g4
(lp249
I3
aI2
aI4
aI0
aI1
aI5
asg6
VCan you eat it?
p250
sg8
(lp251
I38
aI149
aI196
aI56
aI163
aI98
asg10
(lp252
(lp253
I153
aF1
aa(lp254
I78
aF0.5
aasg12
I981
sa(dp255
g4
(lp256
I0
aI3
aI2
aI1
aI5
aI4
asg6
VIs it alive?
p257
sg8
(lp258
I38
aI149
aI196
aI56
aI163
aI98
asg10
(lp259
(lp260
I153
aF1
aa(lp261
I78
aF0.5
aasg12
I981
sa(dp262
g4
(lp263
I2
aI1
aI3
aI0
aI5
aI4
asg6
Vis it expensive
p264
sg8
(lp265
I38
aI149
aI196
aI56
aI163
aI98
asg10
(lp266
(lp267
I153
aF1
aa(lp268
I78
aF0.5
aasg12
I981
sa(dp269
g4
(lp270
I0
aI1
aI2
aI3
aI5
aI4
asg6
VDo people wear it?
p271
sg8
(lp272
I38
aI149
aI196
aI56
aI163
aI98
asg10
(lp273
(lp274
I153
aF1
aa(lp275
I78
aF0.5
aasg12
I981
sa(dp276
g4
(lp277
I2
aI0
aI4
aI1
aI3
aI5
asg6
VDOES IT REQUIRES ENERGY TO OPERATE?
p278
sg8
(lp279
I38
aI149
aI196
aI56
aI163
aI98
asg10
(lp280
(lp281
I153
aF1
aa(lp282
I78
aF0.5
aasg12
I981
sa(dp283
g4
(lp284
I3
aI1
aI4
aI0
aI2
aI5
asg6
VCan it be eaten?
p285
sg8
(lp286
I38
aI149
aI196
aI56
aI163
aI98
asg10
(lp287
(lp288
I153
aF1
aa(lp289
I78
aF0.5
aasg12
I981
sa(dp290
g4
(lp291
I1
aI3
aI2
aI4
aI0
aI5
asg6
VCan you buy it easily?
p292
sg8
(lp293
I38
aI149
aI196
aI56
aI163
aI98
asg10
(lp294
(lp295
I153
aF1
aa(lp296
I78
aF0.5
aasg12
I981
saa(lp297
(dp298
g4
(lp299
I0
aI5
aI1
aI2
aI3
aI4
asg6
VIs it round?
p300
sg8
(lp301
I204
aI80
aI140
aI35
aI152
aI131
asg10
(lp302
(lp303
I78
aF1
aa(lp304
I154
aF1
aasg12
I302
sa(dp305
g4
(lp306
I4
aI3
aI2
aI1
aI0
aI5
asg6
VDo you use it to strike things with?
p307
sg8
(lp308
I204
aI80
aI140
aI35
aI152
aI131
asg10
(lp309
(lp310
I78
aF1
aa(lp311
I154
aF1
aasg12
I302
sa(dp312
g4
(lp313
I2
aI3
aI1
aI4
aI5
aI0
asg6
Vcan it cut something
p314
sg8
(lp315
I204
aI80
aI140
aI35
aI152
aI131
asg10
(lp316
(lp317
I78
aF1
aa(lp318
I154
aF1
aasg12
I302
sa(dp319
g4
(lp320
I3
aI5
aI1
aI4
aI2
aI0
asg6
VIs it perfect shape?
p321
sg8
(lp322
I204
aI80
aI140
aI35
aI152
aI131
asg10
(lp323
(lp324
I78
aF1
aa(lp325
I154
aF1
aasg12
I302
sa(dp326
g4
(lp327
I1
aI2
aI3
aI4
aI0
aI5
asg6
Vis it a tool?
p328
sg8
(lp329
I204
aI80
aI140
aI35
aI152
aI131
asg10
(lp330
(lp331
I78
aF1
aa(lp332
I154
aF1
aasg12
I302
sa(dp333
g4
(lp334
I1
aI2
aI3
aI4
aI5
aI0
asg6
Vis it fun?
p335
sg8
(lp336
I204
aI80
aI140
aI35
aI152
aI131
asg10
(lp337
(lp338
I78
aF1
aa(lp339
I154
aF1
aasg12
I302
sa(dp340
g4
(lp341
I2
aI3
aI1
aI0
aI5
aI4
asg6
VIs it large?
p342
sg8
(lp343
I204
aI80
aI140
aI35
aI152
aI131
asg10
(lp344
(lp345
I78
aF1
aa(lp346
I154
aF1
aasg12
I302
sa(dp347
g4
(lp348
I3
aI2
aI1
aI0
aI5
aI4
asg6
VIs it the size of a drill?
p349
sg8
(lp350
I204
aI80
aI140
aI35
aI152
aI131
asg10
(lp351
(lp352
I78
aF1
aa(lp353
I154
aF1
aasg12
I302
sa(dp354
g4
(lp355
I2
aI3
aI4
aI1
aI0
aI5
asg6
VIs it sharp?
p356
sg8
(lp357
I204
aI80
aI140
aI35
aI152
aI131
asg10
(lp358
(lp359
I78
aF1
aa(lp360
I154
aF1
aasg12
I302
sa(dp361
g4
(lp362
I1
aI2
aI3
aI4
aI0
aI5
asg6
VDoes it require training to use it?
p363
sg8
(lp364
I204
aI80
aI140
aI35
aI152
aI131
asg10
(lp365
(lp366
I78
aF1
aa(lp367
I154
aF1
aasg12
I302
sa(dp368
g4
(lp369
I5
aI0
aI2
aI1
aI4
aI3
asg6
VCan you wear it?
p370
sg8
(lp371
I204
aI80
aI140
aI35
aI152
aI131
asg10
(lp372
(lp373
I78
aF1
aa(lp374
I154
aF1
aasg12
I302
sa(dp375
g4
(lp376
I2
aI3
aI0
aI4
aI5
aI1
asg6
VWhat is it called?
p377
sg8
(lp378
I204
aI80
aI140
aI35
aI152
aI131
asg10
(lp379
(lp380
I78
aF1
aa(lp381
I154
aF1
aasg12
I302
sa(dp382
g4
(lp383
I2
aI1
aI4
aI0
aI5
aI3
asg6
VIS IT COLOR BLACK?
p384
sg8
(lp385
I204
aI80
aI140
aI35
aI152
aI131
asg10
(lp386
(lp387
I78
aF1
aa(lp388
I154
aF1
aasg12
I302
sa(dp389
g4
(lp390
I0
aI2
aI4
aI3
aI1
aI5
asg6
VIs it bigger than a car?
p391
sg8
(lp392
I204
aI80
aI140
aI35
aI152
aI131
asg10
(lp393
(lp394
I78
aF1
aa(lp395
I154
aF1
aasg12
I302
sa(dp396
g4
(lp397
I1
aI2
aI3
aI0
aI5
aI4
asg6
Vis it a personal care product?
p398
sg8
(lp399
I204
aI80
aI140
aI35
aI152
aI131
asg10
(lp400
(lp401
I78
aF1
aa(lp402
I154
aF1
aasg12
I302
sa(dp403
g4
(lp404
I2
aI3
aI1
aI0
aI5
aI4
asg6
VIs it an appliance?
p405
sg8
(lp406
I204
aI80
aI140
aI35
aI152
aI131
asg10
(lp407
(lp408
I78
aF1
aa(lp409
I154
aF1
aasg12
I302
sa(dp410
g4
(lp411
I1
aI4
aI3
aI0
aI2
aI5
asg6
VIs it bigger than a house?
p412
sg8
(lp413
I204
aI80
aI140
aI35
aI152
aI131
asg10
(lp414
(lp415
I78
aF1
aa(lp416
I154
aF1
aasg12
I302
sa(dp417
g4
(lp418
I2
aI1
aI3
aI4
aI0
aI5
asg6
Vdo you find it in the bathroom?
p419
sg8
(lp420
I204
aI80
aI140
aI35
aI152
aI131
asg10
(lp421
(lp422
I78
aF1
aa(lp423
I154
aF1
aasg12
I302
sa(dp424
g4
(lp425
I1
aI3
aI2
aI4
aI0
aI5
asg6
VDoes it have a screen?
p426
sg8
(lp427
I204
aI80
aI140
aI35
aI152
aI131
asg10
(lp428
(lp429
I78
aF1
aa(lp430
I154
aF1
aasg12
I302
sa(dp431
g4
(lp432
I3
aI2
aI1
aI0
aI5
aI4
asg6
VIs it heavy
p433
sg8
(lp434
I204
aI80
aI140
aI35
aI152
aI131
asg10
(lp435
(lp436
I78
aF1
aa(lp437
I154
aF1
aasg12
I302
sa(dp438
g4
(lp439
I2
aI3
aI4
aI0
aI5
aI1
asg6
VIs it battery operated?
p440
sg8
(lp441
I204
aI80
aI140
aI35
aI152
aI131
asg10
(lp442
(lp443
I78
aF1
aa(lp444
I154
aF1
aasg12
I302
sa(dp445
g4
(lp446
I3
aI2
aI1
aI4
aI0
aI5
asg6
VIS IT USUALLY USED OUTSIDE OF THE BATHROOM?
p447
sg8
(lp448
I204
aI80
aI140
aI35
aI152
aI131
asg10
(lp449
(lp450
I78
aF1
aa(lp451
I154
aF1
aasg12
I302
sa(dp452
g4
(lp453
I3
aI2
aI1
aI5
aI0
aI4
asg6
VIs it clothes?
p454
sg8
(lp455
I204
aI80
aI140
aI35
aI152
aI131
asg10
(lp456
(lp457
I78
aF1
aa(lp458
I154
aF1
aasg12
I302
sa(dp459
g4
(lp460
I2
aI3
aI4
aI1
aI5
aI0
asg6
VIs it a tool?
p461
sg8
(lp462
I204
aI80
aI140
aI35
aI152
aI131
asg10
(lp463
(lp464
I78
aF1
aa(lp465
I154
aF1
aasg12
I302
saa(lp466
(dp467
g4
(lp468
I4
aI1
aI2
aI0
aI3
aI5
asg6
VIs it alive?
p469
sg8
(lp470
I158
aI189
aI71
aI214
aI9
aI95
asg10
(lp471
(lp472
I148
aF1
aa(lp473
I82
aF0.5
aasg12
I161
sa(dp474
g4
(lp475
I4
aI0
aI2
aI1
aI5
aI3
asg6
VCan you buy it?
p476
sg8
(lp477
I158
aI189
aI71
aI214
aI9
aI95
asg10
(lp478
(lp479
I148
aF1
aa(lp480
I82
aF0.5
aasg12
I161
sa(dp481
g4
(lp482
I4
aI2
aI1
aI5
aI3
aI0
asg6
Vis it bigger then a breadbox
p483
sg8
(lp484
I158
aI189
aI71
aI214
aI9
aI95
asg10
(lp485
(lp486
I148
aF1
aa(lp487
I82
aF0.5
aasg12
I161
sa(dp488
g4
(lp489
I0
aI4
aI2
aI3
aI5
aI1
asg6
VHow big is it?
p490
sg8
(lp491
I158
aI189
aI71
aI214
aI9
aI95
asg10
(lp492
(lp493
I148
aF1
aa(lp494
I82
aF0.5
aasg12
I161
sa(dp495
g4
(lp496
I4
aI1
aI2
aI0
aI3
aI5
asg6
Vis it electronic?
p497
sg8
(lp498
I158
aI189
aI71
aI214
aI9
aI95
asg10
(lp499
(lp500
I148
aF1
aa(lp501
I82
aF0.5
aasg12
I161
sa(dp502
g4
(lp503
I4
aI0
aI1
aI2
aI5
aI3
asg6
Vcan you wear it?
p504
sg8
(lp505
I158
aI189
aI71
aI214
aI9
aI95
asg10
(lp506
(lp507
I148
aF1
aa(lp508
I82
aF0.5
aasg12
I161
sa(dp509
g4
(lp510
I0
aI4
aI1
aI2
aI5
aI3
asg6
VIs it alive?
p511
sg8
(lp512
I158
aI189
aI71
aI214
aI9
aI95
asg10
(lp513
(lp514
I148
aF1
aa(lp515
I82
aF0.5
aasg12
I161
sa(dp516
g4
(lp517
I4
aI0
aI1
aI2
aI5
aI3
asg6
VIs it alive?
p518
sg8
(lp519
I158
aI189
aI71
aI214
aI9
aI95
asg10
(lp520
(lp521
I148
aF1
aa(lp522
I82
aF0.5
aasg12
I161
sa(dp523
g4
(lp524
I4
aI1
aI5
aI2
aI0
aI3
asg6
VIs it something you wear?
p525
sg8
(lp526
I158
aI189
aI71
aI214
aI9
aI95
asg10
(lp527
(lp528
I148
aF1
aa(lp529
I82
aF0.5
aasg12
I161
sa(dp530
g4
(lp531
I5
aI3
aI1
aI4
aI0
aI2
asg6
VIs it alive?
p532
sg8
(lp533
I158
aI189
aI71
aI214
aI9
aI95
asg10
(lp534
(lp535
I148
aF1
aa(lp536
I82
aF0.5
aasg12
I161
sa(dp537
g4
(lp538
I4
aI5
aI3
aI0
aI1
aI2
asg6
VCan you wear it?
p539
sg8
(lp540
I158
aI189
aI71
aI214
aI9
aI95
asg10
(lp541
(lp542
I148
aF1
aa(lp543
I82
aF0.5
aasg12
I161
sa(dp544
g4
(lp545
I4
aI0
aI5
aI1
aI3
aI2
asg6
VWhat do you call it?
p546
sg8
(lp547
I158
aI189
aI71
aI214
aI9
aI95
asg10
(lp548
(lp549
I148
aF1
aa(lp550
I82
aF0.5
aasg12
I161
sa(dp551
g4
(lp552
I4
aI0
aI5
aI3
aI1
aI2
asg6
VIs it living?
p553
sg8
(lp554
I158
aI189
aI71
aI214
aI9
aI95
asg10
(lp555
(lp556
I148
aF1
aa(lp557
I82
aF0.5
aasg12
I161
sa(dp558
g4
(lp559
I1
aI2
aI4
aI5
aI0
aI3
asg6
VWhat color is it
p560
sg8
(lp561
I158
aI189
aI71
aI214
aI9
aI95
asg10
(lp562
(lp563
I148
aF1
aa(lp564
I82
aF0.5
aasg12
I161
sa(dp565
g4
(lp566
I4
aI0
aI5
aI3
aI2
aI1
asg6
VCan you hold it?
p567
sg8
(lp568
I158
aI189
aI71
aI214
aI9
aI95
asg10
(lp569
(lp570
I148
aF1
aa(lp571
I82
aF0.5
aasg12
I161
sa(dp572
g4
(lp573
I3
aI4
aI5
aI1
aI2
aI0
asg6
VIs it an animal?
p574
sg8
(lp575
I158
aI189
aI71
aI214
aI9
aI95
asg10
(lp576
(lp577
I148
aF1
aa(lp578
I82
aF0.5
aasg12
I161
sa(dp579
g4
(lp580
I0
aI1
aI3
aI4
aI2
aI5
asg6
VIs it smaller than a house
p581
sg8
(lp582
I158
aI189
aI71
aI214
aI9
aI95
asg10
(lp583
(lp584
I148
aF1
aa(lp585
I82
aF0.5
aasg12
I161
sa(dp586
g4
(lp587
I1
aI4
aI2
aI0
aI3
aI5
asg6
VWould you find it in a house?
p588
sg8
(lp589
I158
aI189
aI71
aI214
aI9
aI95
asg10
(lp590
(lp591
I148
aF1
aa(lp592
I82
aF0.5
aasg12
I161
sa(dp593
g4
(lp594
I4
aI0
aI1
aI3
aI5
aI2
asg6
VIs it man made?
p595
sg8
(lp596
I158
aI189
aI71
aI214
aI9
aI95
asg10
(lp597
(lp598
I148
aF1
aa(lp599
I82
aF0.5
aasg12
I161
sa(dp600
g4
(lp601
I5
aI4
aI1
aI0
aI3
aI2
asg6
Vis it manufactured
p602
sg8
(lp603
I158
aI189
aI71
aI214
aI9
aI95
asg10
(lp604
(lp605
I148
aF1
aa(lp606
I82
aF0.5
aasg12
I161
sa(dp607
g4
(lp608
I1
aI4
aI5
aI3
aI2
aI0
asg6
VIs it alive?
p609
sg8
(lp610
I158
aI189
aI71
aI214
aI9
aI95
asg10
(lp611
(lp612
I148
aF1
aa(lp613
I82
aF0.5
aasg12
I161
sa(dp614
g4
(lp615
I4
aI1
aI0
aI2
aI5
aI3
asg6
VIS IT HEAVY?
p616
sg8
(lp617
I158
aI189
aI71
aI214
aI9
aI95
asg10
(lp618
(lp619
I148
aF1
aa(lp620
I82
aF0.5
aasg12
I161
sa(dp621
g4
(lp622
I4
aI2
aI0
aI1
aI3
aI5
asg6
VIs it alive?
p623
sg8
(lp624
I158
aI189
aI71
aI214
aI9
aI95
asg10
(lp625
(lp626
I148
aF1
aa(lp627
I82
aF0.5
aasg12
I161
sa(dp628
g4
(lp629
I4
aI0
aI1
aI3
aI5
aI2
asg6
VIs it living?
p630
sg8
(lp631
I158
aI189
aI71
aI214
aI9
aI95
asg10
(lp632
(lp633
I148
aF1
aa(lp634
I82
aF0.5
aasg12
I161
saa(lp635
(dp636
g4
(lp637
I5
aI2
aI1
aI4
aI3
aI0
asg6
VIs it alive?
p638
sg8
(lp639
I211
aI23
aI34
aI92
aI145
aI6
asg10
(lp640
(lp641
I148
aF0
aa(lp642
I205
aF-0.5
aasg12
I428
sa(dp643
g4
(lp644
I3
aI0
aI5
aI4
aI1
aI2
asg6
VIs it a machine?
p645
sg8
(lp646
I211
aI23
aI34
aI92
aI145
aI6
asg10
(lp647
(lp648
I148
aF0
aa(lp649
I205
aF-0.5
aasg12
I428
sa(dp650
g4
(lp651
I5
aI3
aI1
aI2
aI4
aI0
asg6
Vis it alive
p652
sg8
(lp653
I211
aI23
aI34
aI92
aI145
aI6
asg10
(lp654
(lp655
I148
aF0
aa(lp656
I205
aF-0.5
aasg12
I428
sa(dp657
g4
(lp658
I0
aI3
aI5
aI1
aI4
aI2
asg6
VIs it alive?
p659
sg8
(lp660
I211
aI23
aI34
aI92
aI145
aI6
asg10
(lp661
(lp662
I148
aF0
aa(lp663
I205
aF-0.5
aasg12
I428
sa(dp664
g4
(lp665
I3
aI1
aI4
aI2
aI0
aI5
asg6
Vis it alive
p666
sg8
(lp667
I211
aI23
aI34
aI92
aI145
aI6
asg10
(lp668
(lp669
I148
aF0
aa(lp670
I205
aF-0.5
aasg12
I428
sa(dp671
g4
(lp672
I3
aI0
aI1
aI5
aI2
aI4
asg6
Vis it alive
p673
sg8
(lp674
I211
aI23
aI34
aI92
aI145
aI6
asg10
(lp675
(lp676
I148
aF0
aa(lp677
I205
aF-0.5
aasg12
I428
sa(dp678
g4
(lp679
I4
aI5
aI0
aI1
aI3
aI2
asg6
VIs it alive?
p680
sg8
(lp681
I211
aI23
aI34
aI92
aI145
aI6
asg10
(lp682
(lp683
I148
aF0
aa(lp684
I205
aF-0.5
aasg12
I428
sa(dp685
g4
(lp686
I3
aI4
aI0
aI1
aI2
aI5
asg6
VIs it usually inside
p687
sg8
(lp688
I211
aI23
aI34
aI92
aI145
aI6
asg10
(lp689
(lp690
I148
aF0
aa(lp691
I205
aF-0.5
aasg12
I428
sa(dp692
g4
(lp693
I3
aI5
aI4
aI0
aI1
aI2
asg6
VIs it an animal?
p694
sg8
(lp695
I211
aI23
aI34
aI92
aI145
aI6
asg10
(lp696
(lp697
I148
aF0
aa(lp698
I205
aF-0.5
aasg12
I428
sa(dp699
g4
(lp700
I4
aI1
aI5
aI3
aI2
aI0
asg6
VIs it alive?
p701
sg8
(lp702
I211
aI23
aI34
aI92
aI145
aI6
asg10
(lp703
(lp704
I148
aF0
aa(lp705
I205
aF-0.5
aasg12
I428
sa(dp706
g4
(lp707
I4
aI3
aI2
aI5
aI1
aI0
asg6
VCan you wear it?
p708
sg8
(lp709
I211
aI23
aI34
aI92
aI145
aI6
asg10
(lp710
(lp711
I148
aF0
aa(lp712
I205
aF-0.5
aasg12
I428
sa(dp713
g4
(lp714
I2
aI4
aI3
aI1
aI5
aI0
asg6
VWhat is it called?
p715
sg8
(lp716
I211
aI23
aI34
aI92
aI145
aI6
asg10
(lp717
(lp718
I148
aF0
aa(lp719
I205
aF-0.5
aasg12
I428
sa(dp720
g4
(lp721
I3
aI5
aI1
aI0
aI4
aI2
asg6
VIs it bigger than a dog?
p722
sg8
(lp723
I211
aI23
aI34
aI92
aI145
aI6
asg10
(lp724
(lp725
I148
aF0
aa(lp726
I205
aF-0.5
aasg12
I428
sa(dp727
g4
(lp728
I2
aI4
aI3
aI1
aI0
aI5
asg6
VIt it bigger than a car
p729
sg8
(lp730
I211
aI23
aI34
aI92
aI145
aI6
asg10
(lp731
(lp732
I148
aF0
aa(lp733
I205
aF-0.5
aasg12
I428
sa(dp734
g4
(lp735
I3
aI5
aI1
aI4
aI2
aI0
asg6
VIs it larger than a fridge?
p736
sg8
(lp737
I211
aI23
aI34
aI92
aI145
aI6
asg10
(lp738
(lp739
I148
aF0
aa(lp740
I205
aF-0.5
aasg12
I428
sa(dp741
g4
(lp742
I3
aI2
aI5
aI1
aI0
aI4
asg6
VIs it an animal?
p743
sg8
(lp744
I211
aI23
aI34
aI92
aI145
aI6
asg10
(lp745
(lp746
I148
aF0
aa(lp747
I205
aF-0.5
aasg12
I428
sa(dp748
g4
(lp749
I0
aI4
aI2
aI5
aI3
aI1
asg6
VIs it alive?
p750
sg8
(lp751
I211
aI23
aI34
aI92
aI145
aI6
asg10
(lp752
(lp753
I148
aF0
aa(lp754
I205
aF-0.5
aasg12
I428
sa(dp755
g4
(lp756
I3
aI5
aI4
aI2
aI1
aI0
asg6
VIs it round?
p757
sg8
(lp758
I211
aI23
aI34
aI92
aI145
aI6
asg10
(lp759
(lp760
I148
aF0
aa(lp761
I205
aF-0.5
aasg12
I428
sa(dp762
g4
(lp763
I5
aI3
aI0
aI4
aI1
aI2
asg6
VIs it an animal?
p764
sg8
(lp765
I211
aI23
aI34
aI92
aI145
aI6
asg10
(lp766
(lp767
I148
aF0
aa(lp768
I205
aF-0.5
aasg12
I428
sa(dp769
g4
(lp770
I3
aI1
aI2
aI0
aI4
aI5
asg6
Vis it manufactured
p771
sg8
(lp772
I211
aI23
aI34
aI92
aI145
aI6
asg10
(lp773
(lp774
I148
aF0
aa(lp775
I205
aF-0.5
aasg12
I428
sa(dp776
g4
(lp777
I4
aI3
aI2
aI0
aI1
aI5
asg6
VCan it be held with one hand?
p778
sg8
(lp779
I211
aI23
aI34
aI92
aI145
aI6
asg10
(lp780
(lp781
I148
aF0
aa(lp782
I205
aF-0.5
aasg12
I428
sa(dp783
g4
(lp784
I0
aI3
aI5
aI1
aI2
aI4
asg6
VDO YOU NORMALLY HOLD IT IN ONE HAND TO USE IT?
p785
sg8
(lp786
I211
aI23
aI34
aI92
aI145
aI6
asg10
(lp787
(lp788
I148
aF0
aa(lp789
I205
aF-0.5
aasg12
I428
sa(dp790
g4
(lp791
I3
aI5
aI1
aI2
aI4
aI0
asg6
VIs it alive?
p792
sg8
(lp793
I211
aI23
aI34
aI92
aI145
aI6
asg10
(lp794
(lp795
I148
aF0
aa(lp796
I205
aF-0.5
aasg12
I428
sa(dp797
g4
(lp798
I5
aI3
aI0
aI2
aI4
aI1
asg6
VIs it electronic?
p799
sg8
(lp800
I211
aI23
aI34
aI92
aI145
aI6
asg10
(lp801
(lp802
I148
aF0
aa(lp803
I205
aF-0.5
aasg12
I428
saa(lp804
(dp805
g4
(lp806
I1
aI4
aI0
aI5
aI3
aI2
asg6
VIs it round?
p807
sg8
(lp808
I150
aI21
aI65
aI186
aI151
aI132
asg10
(lp809
(lp810
I207
aF1
aa(lp811
I82
aF1
aa(lp812
I216
aF1
aa(lp813
I181
aF1
aasg12
I564
sa(dp814
g4
(lp815
I5
aI4
aI0
aI1
aI3
aI2
asg6
VDoes it have 4 legs?
p816
sg8
(lp817
I150
aI21
aI65
aI186
aI151
aI132
asg10
(lp818
(lp819
I207
aF1
aa(lp820
I82
aF1
aa(lp821
I216
aF1
aa(lp822
I181
aF1
aasg12
I564
sa(dp823
g4
(lp824
I2
aI3
aI1
aI4
aI0
aI5
asg6
Vis it edible 
p825
sg8
(lp826
I150
aI21
aI65
aI186
aI151
aI132
asg10
(lp827
(lp828
I207
aF1
aa(lp829
I82
aF1
aa(lp830
I216
aF1
aa(lp831
I181
aF1
aasg12
I564
sa(dp832
g4
(lp833
I1
aI2
aI0
aI3
aI5
aI4
asg6
VCan you move on it?
p834
sg8
(lp835
I150
aI21
aI65
aI186
aI151
aI132
asg10
(lp836
(lp837
I207
aF1
aa(lp838
I82
aF1
aa(lp839
I216
aF1
aa(lp840
I181
aF1
aasg12
I564
sa(dp841
g4
(lp842
I5
aI4
aI3
aI1
aI0
aI2
asg6
Vis it alive?
p843
sg8
(lp844
I150
aI21
aI65
aI186
aI151
aI132
asg10
(lp845
(lp846
I207
aF1
aa(lp847
I82
aF1
aa(lp848
I216
aF1
aa(lp849
I181
aF1
aasg12
I564
sa(dp850
g4
(lp851
I4
aI1
aI5
aI0
aI3
aI2
asg6
VIs it green?
p852
sg8
(lp853
I150
aI21
aI65
aI186
aI151
aI132
asg10
(lp854
(lp855
I207
aF1
aa(lp856
I82
aF1
aa(lp857
I216
aF1
aa(lp858
I181
aF1
aasg12
I564
sa(dp859
g4
(lp860
I5
aI0
aI1
aI4
aI2
aI3
asg6
VIs it alive?
p861
sg8
(lp862
I150
aI21
aI65
aI186
aI151
aI132
asg10
(lp863
(lp864
I207
aF1
aa(lp865
I82
aF1
aa(lp866
I216
aF1
aa(lp867
I181
aF1
aasg12
I564
sa(dp868
g4
(lp869
I3
aI5
aI4
aI0
aI1
aI2
asg6
VDoes it have paws
p870
sg8
(lp871
I150
aI21
aI65
aI186
aI151
aI132
asg10
(lp872
(lp873
I207
aF1
aa(lp874
I82
aF1
aa(lp875
I216
aF1
aa(lp876
I181
aF1
aasg12
I564
sa(dp877
g4
(lp878
I2
aI3
aI4
aI1
aI5
aI0
asg6
VIs it alive?
p879
sg8
(lp880
I150
aI21
aI65
aI186
aI151
aI132
asg10
(lp881
(lp882
I207
aF1
aa(lp883
I82
aF1
aa(lp884
I216
aF1
aa(lp885
I181
aF1
aasg12
I564
sa(dp886
g4
(lp887
I3
aI5
aI2
aI1
aI4
aI0
asg6
VCan we eat it?
p888
sg8
(lp889
I150
aI21
aI65
aI186
aI151
aI132
asg10
(lp890
(lp891
I207
aF1
aa(lp892
I82
aF1
aa(lp893
I216
aF1
aa(lp894
I181
aF1
aasg12
I564
sa(dp895
g4
(lp896
I5
aI3
aI4
aI1
aI0
aI2
asg6
VCan you wear it?
p897
sg8
(lp898
I150
aI21
aI65
aI186
aI151
aI132
asg10
(lp899
(lp900
I207
aF1
aa(lp901
I82
aF1
aa(lp902
I216
aF1
aa(lp903
I181
aF1
aasg12
I564
sa(dp904
g4
(lp905
I4
aI3
aI5
aI0
aI2
aI1
asg6
Vwhat is it called?
p906
sg8
(lp907
I150
aI21
aI65
aI186
aI151
aI132
asg10
(lp908
(lp909
I207
aF1
aa(lp910
I82
aF1
aa(lp911
I216
aF1
aa(lp912
I181
aF1
aasg12
I564
sa(dp913
g4
(lp914
I0
aI5
aI3
aI4
aI1
aI2
asg6
VIS IT A TOOL?
p915
sg8
(lp916
I150
aI21
aI65
aI186
aI151
aI132
asg10
(lp917
(lp918
I207
aF1
aa(lp919
I82
aF1
aa(lp920
I216
aF1
aa(lp921
I181
aF1
aasg12
I564
sa(dp922
g4
(lp923
I1
aI0
aI2
aI3
aI5
aI4
asg6
VWhat color is it
p924
sg8
(lp925
I150
aI21
aI65
aI186
aI151
aI132
asg10
(lp926
(lp927
I207
aF1
aa(lp928
I82
aF1
aa(lp929
I216
aF1
aa(lp930
I181
aF1
aasg12
I564
sa(dp931
g4
(lp932
I2
aI3
aI1
aI0
aI4
aI5
asg6
VIs it alive?
p933
sg8
(lp934
I150
aI21
aI65
aI186
aI151
aI132
asg10
(lp935
(lp936
I207
aF1
aa(lp937
I82
aF1
aa(lp938
I216
aF1
aa(lp939
I181
aF1
aasg12
I564
sa(dp940
g4
(lp941
I5
aI2
aI3
aI4
aI0
aI1
asg6
VIs it an animal?
p942
sg8
(lp943
I150
aI21
aI65
aI186
aI151
aI132
asg10
(lp944
(lp945
I207
aF1
aa(lp946
I82
aF1
aa(lp947
I216
aF1
aa(lp948
I181
aF1
aasg12
I564
sa(dp949
g4
(lp950
I4
aI5
aI0
aI3
aI2
aI1
asg6
VIs it bigger than a house?
p951
sg8
(lp952
I150
aI21
aI65
aI186
aI151
aI132
asg10
(lp953
(lp954
I207
aF1
aa(lp955
I82
aF1
aa(lp956
I216
aF1
aa(lp957
I181
aF1
aasg12
I564
sa(dp958
g4
(lp959
I4
aI5
aI2
aI3
aI1
aI0
asg6
VIs it amphibious?
p960
sg8
(lp961
I150
aI21
aI65
aI186
aI151
aI132
asg10
(lp962
(lp963
I207
aF1
aa(lp964
I82
aF1
aa(lp965
I216
aF1
aa(lp966
I181
aF1
aasg12
I564
sa(dp967
g4
(lp968
I4
aI2
aI1
aI0
aI3
aI5
asg6
VDoes you usually keep it in your pocket?
p969
sg8
(lp970
I150
aI21
aI65
aI186
aI151
aI132
asg10
(lp971
(lp972
I207
aF1
aa(lp973
I82
aF1
aa(lp974
I216
aF1
aa(lp975
I181
aF1
aasg12
I564
sa(dp976
g4
(lp977
I3
aI1
aI5
aI4
aI2
aI0
asg6
Vis it red
p978
sg8
(lp979
I150
aI21
aI65
aI186
aI151
aI132
asg10
(lp980
(lp981
I207
aF1
aa(lp982
I82
aF1
aa(lp983
I216
aF1
aa(lp984
I181
aF1
aasg12
I564
sa(dp985
g4
(lp986
I5
aI3
aI2
aI0
aI1
aI4
asg6
VIs it alive?
p987
sg8
(lp988
I150
aI21
aI65
aI186
aI151
aI132
asg10
(lp989
(lp990
I207
aF1
aa(lp991
I82
aF1
aa(lp992
I216
aF1
aa(lp993
I181
aF1
aasg12
I564
sa(dp994
g4
(lp995
I2
aI4
aI1
aI0
aI3
aI5
asg6
VCAN YOU HOLD IT IN ONE HAND?
p996
sg8
(lp997
I150
aI21
aI65
aI186
aI151
aI132
asg10
(lp998
(lp999
I207
aF1
aa(lp1000
I82
aF1
aa(lp1001
I216
aF1
aa(lp1002
I181
aF1
aasg12
I564
sa(dp1003
g4
(lp1004
I5
aI1
aI0
aI4
aI3
aI2
asg6
VIs it alive?
p1005
sg8
(lp1006
I150
aI21
aI65
aI186
aI151
aI132
asg10
(lp1007
(lp1008
I207
aF1
aa(lp1009
I82
aF1
aa(lp1010
I216
aF1
aa(lp1011
I181
aF1
aasg12
I564
sa(dp1012
g4
(lp1013
I2
aI5
aI0
aI4
aI1
aI3
asg6
VIs it easy to buy?
p1014
sg8
(lp1015
I150
aI21
aI65
aI186
aI151
aI132
asg10
(lp1016
(lp1017
I207
aF1
aa(lp1018
I82
aF1
aa(lp1019
I216
aF1
aa(lp1020
I181
aF1
aasg12
I564
saa(lp1021
(dp1022
g4
(lp1023
I4
aI5
aI0
aI3
aI1
aI2
asg6
VIs it alive?
p1024
sg8
(lp1025
I85
aI47
aI191
aI44
aI176
aI170
asg10
(lp1026
(lp1027
I181
aF-1
aa(lp1028
I86
aF1
aa(lp1029
I205
aF1
aa(lp1030
I88
aF1
aasg12
I777
sa(dp1031
g4
(lp1032
I2
aI1
aI4
aI5
aI0
aI3
asg6
VIs it bigger than a building?
p1033
sg8
(lp1034
I85
aI47
aI191
aI44
aI176
aI170
asg10
(lp1035
(lp1036
I181
aF-1
aa(lp1037
I86
aF1
aa(lp1038
I205
aF1
aa(lp1039
I88
aF1
aasg12
I777
sa(dp1040
g4
(lp1041
I2
aI3
aI1
aI4
aI5
aI0
asg6
VCan you go inside it
p1042
sg8
(lp1043
I85
aI47
aI191
aI44
aI176
aI170
asg10
(lp1044
(lp1045
I181
aF-1
aa(lp1046
I86
aF1
aa(lp1047
I205
aF1
aa(lp1048
I88
aF1
aasg12
I777
sa(dp1049
g4
(lp1050
I1
aI4
aI2
aI3
aI0
aI5
asg6
VIs it a celebrity?
p1051
sg8
(lp1052
I85
aI47
aI191
aI44
aI176
aI170
asg10
(lp1053
(lp1054
I181
aF-1
aa(lp1055
I86
aF1
aa(lp1056
I205
aF1
aa(lp1057
I88
aF1
aasg12
I777
sa(dp1058
g4
(lp1059
I1
aI3
aI2
aI4
aI5
aI0
asg6
Vis it alive
p1060
sg8
(lp1061
I85
aI47
aI191
aI44
aI176
aI170
asg10
(lp1062
(lp1063
I181
aF-1
aa(lp1064
I86
aF1
aa(lp1065
I205
aF1
aa(lp1066
I88
aF1
aasg12
I777
sa(dp1067
g4
(lp1068
I2
aI3
aI1
aI5
aI4
aI0
asg6
Vcan you buy it?
p1069
sg8
(lp1070
I85
aI47
aI191
aI44
aI176
aI170
asg10
(lp1071
(lp1072
I181
aF-1
aa(lp1073
I86
aF1
aa(lp1074
I205
aF1
aa(lp1075
I88
aF1
aasg12
I777
sa(dp1076
g4
(lp1077
I5
aI0
aI4
aI2
aI3
aI1
asg6
VIs it alive?
p1078
sg8
(lp1079
I85
aI47
aI191
aI44
aI176
aI170
asg10
(lp1080
(lp1081
I181
aF-1
aa(lp1082
I86
aF1
aa(lp1083
I205
aF1
aa(lp1084
I88
aF1
aasg12
I777
sa(dp1085
g4
(lp1086
I2
aI1
aI3
aI4
aI5
aI0
asg6
Vis it alive
p1087
sg8
(lp1088
I85
aI47
aI191
aI44
aI176
aI170
asg10
(lp1089
(lp1090
I181
aF-1
aa(lp1091
I86
aF1
aa(lp1092
I205
aF1
aa(lp1093
I88
aF1
aasg12
I777
sa(dp1094
g4
(lp1095
I2
aI1
aI3
aI4
aI0
aI5
asg6
VDo people go inside of it?
p1096
sg8
(lp1097
I85
aI47
aI191
aI44
aI176
aI170
asg10
(lp1098
(lp1099
I181
aF-1
aa(lp1100
I86
aF1
aa(lp1101
I205
aF1
aa(lp1102
I88
aF1
aasg12
I777
sa(dp1103
g4
(lp1104
I2
aI3
aI4
aI1
aI5
aI0
asg6
VIs it a mammal?
p1105
sg8
(lp1106
I85
aI47
aI191
aI44
aI176
aI170
asg10
(lp1107
(lp1108
I181
aF-1
aa(lp1109
I86
aF1
aa(lp1110
I205
aF1
aa(lp1111
I88
aF1
aasg12
I777
sa(dp1112
g4
(lp1113
I4
aI5
aI3
aI1
aI0
aI2
asg6
VCan you buy it?
p1114
sg8
(lp1115
I85
aI47
aI191
aI44
aI176
aI170
asg10
(lp1116
(lp1117
I181
aF-1
aa(lp1118
I86
aF1
aa(lp1119
I205
aF1
aa(lp1120
I88
aF1
aasg12
I777
sa(dp1121
g4
(lp1122
I1
aI4
aI3
aI5
aI0
aI2
asg6
Vwhat is it called?
p1123
sg8
(lp1124
I85
aI47
aI191
aI44
aI176
aI170
asg10
(lp1125
(lp1126
I181
aF-1
aa(lp1127
I86
aF1
aa(lp1128
I205
aF1
aa(lp1129
I88
aF1
aasg12
I777
sa(dp1130
g4
(lp1131
I5
aI2
aI1
aI4
aI3
aI0
asg6
VIs it alive?
p1132
sg8
(lp1133
I85
aI47
aI191
aI44
aI176
aI170
asg10
(lp1134
(lp1135
I181
aF-1
aa(lp1136
I86
aF1
aa(lp1137
I205
aF1
aa(lp1138
I88
aF1
aasg12
I777
sa(dp1139
g4
(lp1140
I2
aI1
aI3
aI4
aI5
aI0
asg6
VDoes it live in the ocean?
p1141
sg8
(lp1142
I85
aI47
aI191
aI44
aI176
aI170
asg10
(lp1143
(lp1144
I181
aF-1
aa(lp1145
I86
aF1
aa(lp1146
I205
aF1
aa(lp1147
I88
aF1
aasg12
I777
sa(dp1148
g4
(lp1149
I2
aI3
aI1
aI4
aI5
aI0
asg6
VIs it alive?
p1150
sg8
(lp1151
I85
aI47
aI191
aI44
aI176
aI170
asg10
(lp1152
(lp1153
I181
aF-1
aa(lp1154
I86
aF1
aa(lp1155
I205
aF1
aa(lp1156
I88
aF1
aasg12
I777
sa(dp1157
g4
(lp1158
I2
aI1
aI4
aI5
aI3
aI0
asg6
VIs it an animal?
p1159
sg8
(lp1160
I85
aI47
aI191
aI44
aI176
aI170
asg10
(lp1161
(lp1162
I181
aF-1
aa(lp1163
I86
aF1
aa(lp1164
I205
aF1
aa(lp1165
I88
aF1
aasg12
I777
sa(dp1166
g4
(lp1167
I2
aI4
aI3
aI1
aI5
aI0
asg6
VIs it bigger than a house?
p1168
sg8
(lp1169
I85
aI47
aI191
aI44
aI176
aI170
asg10
(lp1170
(lp1171
I181
aF-1
aa(lp1172
I86
aF1
aa(lp1173
I205
aF1
aa(lp1174
I88
aF1
aasg12
I777
sa(dp1175
g4
(lp1176
I2
aI5
aI0
aI1
aI3
aI4
asg6
VIs it alive?
p1177
sg8
(lp1178
I85
aI47
aI191
aI44
aI176
aI170
asg10
(lp1179
(lp1180
I181
aF-1
aa(lp1181
I86
aF1
aa(lp1182
I205
aF1
aa(lp1183
I88
aF1
aasg12
I777
sa(dp1184
g4
(lp1185
I1
aI2
aI3
aI4
aI5
aI0
asg6
VIs it a building?
p1186
sg8
(lp1187
I85
aI47
aI191
aI44
aI176
aI170
asg10
(lp1188
(lp1189
I181
aF-1
aa(lp1190
I86
aF1
aa(lp1191
I205
aF1
aa(lp1192
I88
aF1
aasg12
I777
sa(dp1193
g4
(lp1194
I2
aI4
aI3
aI1
aI0
aI5
asg6
Vis it alive
p1195
sg8
(lp1196
I85
aI47
aI191
aI44
aI176
aI170
asg10
(lp1197
(lp1198
I181
aF-1
aa(lp1199
I86
aF1
aa(lp1200
I205
aF1
aa(lp1201
I88
aF1
aasg12
I777
sa(dp1202
g4
(lp1203
I1
aI2
aI3
aI4
aI0
aI5
asg6
VDo people go inside it?
p1204
sg8
(lp1205
I85
aI47
aI191
aI44
aI176
aI170
asg10
(lp1206
(lp1207
I181
aF-1
aa(lp1208
I86
aF1
aa(lp1209
I205
aF1
aa(lp1210
I88
aF1
aasg12
I777
sa(dp1211
g4
(lp1212
I1
aI2
aI3
aI4
aI0
aI5
asg6
VIS IT HEIGHT TALLER THAN IT WIDTH?
p1213
sg8
(lp1214
I85
aI47
aI191
aI44
aI176
aI170
asg10
(lp1215
(lp1216
I181
aF-1
aa(lp1217
I86
aF1
aa(lp1218
I205
aF1
aa(lp1219
I88
aF1
aasg12
I777
sa(dp1220
g4
(lp1221
I1
aI2
aI3
aI0
aI4
aI5
asg6
VIs it stuck to the ground?
p1222
sg8
(lp1223
I85
aI47
aI191
aI44
aI176
aI170
asg10
(lp1224
(lp1225
I181
aF-1
aa(lp1226
I86
aF1
aa(lp1227
I205
aF1
aa(lp1228
I88
aF1
aasg12
I777
sa(dp1229
g4
(lp1230
I2
aI3
aI1
aI5
aI4
aI0
asg6
VIs it living?
p1231
sg8
(lp1232
I85
aI47
aI191
aI44
aI176
aI170
asg10
(lp1233
(lp1234
I181
aF-1
aa(lp1235
I86
aF1
aa(lp1236
I205
aF1
aa(lp1237
I88
aF1
aasg12
I777
saa(lp1238
(dp1239
g4
(lp1240
I0
aI1
aI5
aI4
aI3
aI2
asg6
VIs it a house?
p1241
sg8
(lp1242
I192
aI39
aI165
aI64
aI90
aI96
asg10
(lp1243
(lp1244
I86
aF1
aa(lp1245
I88
aF1
aa(lp1246
I168
aF1
aa(lp1247
I2
aF1
aasg12
I375
sa(dp1248
g4
(lp1249
I1
aI3
aI0
aI2
aI4
aI5
asg6
VDo a lot of people go there?
p1250
sg8
(lp1251
I192
aI39
aI165
aI64
aI90
aI96
asg10
(lp1252
(lp1253
I86
aF1
aa(lp1254
I88
aF1
aa(lp1255
I168
aF1
aa(lp1256
I2
aF1
aasg12
I375
sa(dp1257
g4
(lp1258
I1
aI0
aI2
aI3
aI4
aI5
asg6
VDo you live in it
p1259
sg8
(lp1260
I192
aI39
aI165
aI64
aI90
aI96
asg10
(lp1261
(lp1262
I86
aF1
aa(lp1263
I88
aF1
aa(lp1264
I168
aF1
aa(lp1265
I2
aF1
aasg12
I375
sa(dp1266
g4
(lp1267
I1
aI0
aI5
aI4
aI2
aI3
asg6
VIs it a skyscraper?
p1268
sg8
(lp1269
I192
aI39
aI165
aI64
aI90
aI96
asg10
(lp1270
(lp1271
I86
aF1
aa(lp1272
I88
aF1
aa(lp1273
I168
aF1
aa(lp1274
I2
aF1
aasg12
I375
sa(dp1275
g4
(lp1276
I1
aI3
aI0
aI2
aI4
aI5
asg6
Vis it a place of employment?
p1277
sg8
(lp1278
I192
aI39
aI165
aI64
aI90
aI96
asg10
(lp1279
(lp1280
I86
aF1
aa(lp1281
I88
aF1
aa(lp1282
I168
aF1
aa(lp1283
I2
aF1
aasg12
I375
sa(dp1284
g4
(lp1285
I1
aI4
aI2
aI3
aI0
aI5
asg6
Vcan you buy it?
p1286
sg8
(lp1287
I192
aI39
aI165
aI64
aI90
aI96
asg10
(lp1288
(lp1289
I86
aF1
aa(lp1290
I88
aF1
aa(lp1291
I168
aF1
aa(lp1292
I2
aF1
aasg12
I375
sa(dp1293
g4
(lp1294
I1
aI4
aI2
aI3
aI5
aI0
asg6
VIt it made of steel?
p1295
sg8
(lp1296
I192
aI39
aI165
aI64
aI90
aI96
asg10
(lp1297
(lp1298
I86
aF1
aa(lp1299
I88
aF1
aa(lp1300
I168
aF1
aa(lp1301
I2
aF1
aasg12
I375
sa(dp1302
g4
(lp1303
I1
aI3
aI0
aI4
aI2
aI5
asg6
VIs it a place to live?
p1304
sg8
(lp1305
I192
aI39
aI165
aI64
aI90
aI96
asg10
(lp1306
(lp1307
I86
aF1
aa(lp1308
I88
aF1
aa(lp1309
I168
aF1
aa(lp1310
I2
aF1
aasg12
I375
sa(dp1311
g4
(lp1312
I1
aI4
aI3
aI0
aI2
aI5
asg6
VCan more than 20 people fit inside it?
p1313
sg8
(lp1314
I192
aI39
aI165
aI64
aI90
aI96
asg10
(lp1315
(lp1316
I86
aF1
aa(lp1317
I88
aF1
aa(lp1318
I168
aF1
aa(lp1319
I2
aF1
aasg12
I375
sa(dp1320
g4
(lp1321
I0
aI1
aI3
aI2
aI4
aI5
asg6
VIs it a public building?
p1322
sg8
(lp1323
I192
aI39
aI165
aI64
aI90
aI96
asg10
(lp1324
(lp1325
I86
aF1
aa(lp1326
I88
aF1
aa(lp1327
I168
aF1
aa(lp1328
I2
aF1
aasg12
I375
sa(dp1329
g4
(lp1330
I1
aI2
aI4
aI3
aI0
aI5
asg6
VCan you wear it?
p1331
sg8
(lp1332
I192
aI39
aI165
aI64
aI90
aI96
asg10
(lp1333
(lp1334
I86
aF1
aa(lp1335
I88
aF1
aa(lp1336
I168
aF1
aa(lp1337
I2
aF1
aasg12
I375
sa(dp1338
g4
(lp1339
I5
aI4
aI3
aI2
aI0
aI1
asg6
VWhat is it called?
p1340
sg8
(lp1341
I192
aI39
aI165
aI64
aI90
aI96
asg10
(lp1342
(lp1343
I86
aF1
aa(lp1344
I88
aF1
aa(lp1345
I168
aF1
aa(lp1346
I2
aF1
aasg12
I375
sa(dp1347
g4
(lp1348
I2
aI1
aI0
aI5
aI4
aI3
asg6
VCAN YOU BUY IT?
p1349
sg8
(lp1350
I192
aI39
aI165
aI64
aI90
aI96
asg10
(lp1351
(lp1352
I86
aF1
aa(lp1353
I88
aF1
aa(lp1354
I168
aF1
aa(lp1355
I2
aF1
aasg12
I375
sa(dp1356
g4
(lp1357
I1
aI0
aI2
aI4
aI3
aI5
asg6
VDoes it have windows
p1358
sg8
(lp1359
I192
aI39
aI165
aI64
aI90
aI96
asg10
(lp1360
(lp1361
I86
aF1
aa(lp1362
I88
aF1
aa(lp1363
I168
aF1
aa(lp1364
I2
aF1
aasg12
I375
sa(dp1365
g4
(lp1366
I1
aI4
aI3
aI2
aI0
aI5
asg6
VIs it an animal?
p1367
sg8
(lp1368
I192
aI39
aI165
aI64
aI90
aI96
asg10
(lp1369
(lp1370
I86
aF1
aa(lp1371
I88
aF1
aa(lp1372
I168
aF1
aa(lp1373
I2
aF1
aasg12
I375
sa(dp1374
g4
(lp1375
I1
aI3
aI0
aI4
aI2
aI5
asg6
VIs it made of wood?
p1376
sg8
(lp1377
I192
aI39
aI165
aI64
aI90
aI96
asg10
(lp1378
(lp1379
I86
aF1
aa(lp1380
I88
aF1
aa(lp1381
I168
aF1
aa(lp1382
I2
aF1
aasg12
I375
sa(dp1383
g4
(lp1384
I1
aI3
aI2
aI0
aI5
aI4
asg6
VCould you live there?
p1385
sg8
(lp1386
I192
aI39
aI165
aI64
aI90
aI96
asg10
(lp1387
(lp1388
I86
aF1
aa(lp1389
I88
aF1
aa(lp1390
I168
aF1
aa(lp1391
I2
aF1
aasg12
I375
sa(dp1392
g4
(lp1393
I4
aI3
aI0
aI2
aI1
aI5
asg6
VIs it a skyscraper?
p1394
sg8
(lp1395
I192
aI39
aI165
aI64
aI90
aI96
asg10
(lp1396
(lp1397
I86
aF1
aa(lp1398
I88
aF1
aa(lp1399
I168
aF1
aa(lp1400
I2
aF1
aasg12
I375
sa(dp1401
g4
(lp1402
I3
aI1
aI2
aI0
aI4
aI5
asg6
VIs it in the USA?
p1403
sg8
(lp1404
I192
aI39
aI165
aI64
aI90
aI96
asg10
(lp1405
(lp1406
I86
aF1
aa(lp1407
I88
aF1
aa(lp1408
I168
aF1
aa(lp1409
I2
aF1
aasg12
I375
sa(dp1410
g4
(lp1411
I0
aI1
aI3
aI2
aI4
aI5
asg6
Vis it tall
p1412
sg8
(lp1413
I192
aI39
aI165
aI64
aI90
aI96
asg10
(lp1414
(lp1415
I86
aF1
aa(lp1416
I88
aF1
aa(lp1417
I168
aF1
aa(lp1418
I2
aF1
aasg12
I375
sa(dp1419
g4
(lp1420
I1
aI5
aI2
aI3
aI0
aI4
asg6
VIs it a government building?
p1421
sg8
(lp1422
I192
aI39
aI165
aI64
aI90
aI96
asg10
(lp1423
(lp1424
I86
aF1
aa(lp1425
I88
aF1
aa(lp1426
I168
aF1
aa(lp1427
I2
aF1
aasg12
I375
sa(dp1428
g4
(lp1429
I1
aI0
aI3
aI2
aI5
aI4
asg6
VCAN YOU BUY THINGS WHEN INSIDE OF IT?
p1430
sg8
(lp1431
I192
aI39
aI165
aI64
aI90
aI96
asg10
(lp1432
(lp1433
I86
aF1
aa(lp1434
I88
aF1
aa(lp1435
I168
aF1
aa(lp1436
I2
aF1
aasg12
I375
sa(dp1437
g4
(lp1438
I1
aI0
aI2
aI4
aI5
aI3
asg6
VDo people live in it?
p1439
sg8
(lp1440
I192
aI39
aI165
aI64
aI90
aI96
asg10
(lp1441
(lp1442
I86
aF1
aa(lp1443
I88
aF1
aa(lp1444
I168
aF1
aa(lp1445
I2
aF1
aasg12
I375
sa(dp1446
g4
(lp1447
I3
aI1
aI2
aI0
aI4
aI5
asg6
VIs it old?
p1448
sg8
(lp1449
I192
aI39
aI165
aI64
aI90
aI96
asg10
(lp1450
(lp1451
I86
aF1
aa(lp1452
I88
aF1
aa(lp1453
I168
aF1
aa(lp1454
I2
aF1
aasg12
I375
saa(lp1455
(dp1456
g4
(lp1457
I4
aI1
aI0
aI2
aI5
aI3
asg6
VDoes it live in the forest?
p1458
sg8
(lp1459
I129
aI164
aI29
aI135
aI100
aI17
asg10
(lp1460
(lp1461
I78
aF-1
aa(lp1462
I75
aF1
aa(lp1463
I0
aF1
aa(lp1464
I134
aF1
aasg12
I362
sa(dp1465
g4
(lp1466
I0
aI3
aI4
aI2
aI1
aI5
asg6
VIs it a pet?
p1467
sg8
(lp1468
I129
aI164
aI29
aI135
aI100
aI17
asg10
(lp1469
(lp1470
I78
aF-1
aa(lp1471
I75
aF1
aa(lp1472
I0
aF1
aa(lp1473
I134
aF1
aasg12
I362
sa(dp1474
g4
(lp1475
I0
aI3
aI4
aI1
aI2
aI5
asg6
VDoes it have fur
p1476
sg8
(lp1477
I129
aI164
aI29
aI135
aI100
aI17
asg10
(lp1478
(lp1479
I78
aF-1
aa(lp1480
I75
aF1
aa(lp1481
I0
aF1
aa(lp1482
I134
aF1
aasg12
I362
sa(dp1483
g4
(lp1484
I0
aI3
aI1
aI4
aI2
aI5
asg6
VDoes it have a lot of hairs?
p1485
sg8
(lp1486
I129
aI164
aI29
aI135
aI100
aI17
asg10
(lp1487
(lp1488
I78
aF-1
aa(lp1489
I75
aF1
aa(lp1490
I0
aF1
aa(lp1491
I134
aF1
aasg12
I362
sa(dp1492
g4
(lp1493
I3
aI0
aI2
aI1
aI4
aI5
asg6
Vis it a pet?
p1494
sg8
(lp1495
I129
aI164
aI29
aI135
aI100
aI17
asg10
(lp1496
(lp1497
I78
aF-1
aa(lp1498
I75
aF1
aa(lp1499
I0
aF1
aa(lp1500
I134
aF1
aasg12
I362
sa(dp1501
g4
(lp1502
I0
aI3
aI2
aI4
aI1
aI5
asg6
Vis it small?
p1503
sg8
(lp1504
I129
aI164
aI29
aI135
aI100
aI17
asg10
(lp1505
(lp1506
I78
aF-1
aa(lp1507
I75
aF1
aa(lp1508
I0
aF1
aa(lp1509
I134
aF1
aasg12
I362
sa(dp1510
g4
(lp1511
I0
aI3
aI4
aI2
aI1
aI5
asg6
VCan it live in water?
p1512
sg8
(lp1513
I129
aI164
aI29
aI135
aI100
aI17
asg10
(lp1514
(lp1515
I78
aF-1
aa(lp1516
I75
aF1
aa(lp1517
I0
aF1
aa(lp1518
I134
aF1
aasg12
I362
sa(dp1519
g4
(lp1520
I0
aI3
aI4
aI1
aI2
aI5
asg6
VDoes it have feathers
p1521
sg8
(lp1522
I129
aI164
aI29
aI135
aI100
aI17
asg10
(lp1523
(lp1524
I78
aF-1
aa(lp1525
I75
aF1
aa(lp1526
I0
aF1
aa(lp1527
I134
aF1
aasg12
I362
sa(dp1528
g4
(lp1529
I4
aI0
aI3
aI1
aI2
aI5
asg6
VDoes it have fur?
p1530
sg8
(lp1531
I129
aI164
aI29
aI135
aI100
aI17
asg10
(lp1532
(lp1533
I78
aF-1
aa(lp1534
I75
aF1
aa(lp1535
I0
aF1
aa(lp1536
I134
aF1
aasg12
I362
sa(dp1537
g4
(lp1538
I1
aI2
aI3
aI0
aI4
aI5
asg6
VIs it domesticated?
p1539
sg8
(lp1540
I129
aI164
aI29
aI135
aI100
aI17
asg10
(lp1541
(lp1542
I78
aF-1
aa(lp1543
I75
aF1
aa(lp1544
I0
aF1
aa(lp1545
I134
aF1
aasg12
I362
sa(dp1546
g4
(lp1547
I0
aI1
aI4
aI5
aI2
aI3
asg6
VDoes it swim?
p1548
sg8
(lp1549
I129
aI164
aI29
aI135
aI100
aI17
asg10
(lp1550
(lp1551
I78
aF-1
aa(lp1552
I75
aF1
aa(lp1553
I0
aF1
aa(lp1554
I134
aF1
aasg12
I362
sa(dp1555
g4
(lp1556
I3
aI0
aI4
aI2
aI1
aI5
asg6
VWhat is it called?
p1557
sg8
(lp1558
I129
aI164
aI29
aI135
aI100
aI17
asg10
(lp1559
(lp1560
I78
aF-1
aa(lp1561
I75
aF1
aa(lp1562
I0
aF1
aa(lp1563
I134
aF1
aasg12
I362
sa(dp1564
g4
(lp1565
I0
aI5
aI1
aI2
aI3
aI4
asg6
VDOES IT LIVE IN WATER?
p1566
sg8
(lp1567
I129
aI164
aI29
aI135
aI100
aI17
asg10
(lp1568
(lp1569
I78
aF-1
aa(lp1570
I75
aF1
aa(lp1571
I0
aF1
aa(lp1572
I134
aF1
aasg12
I362
sa(dp1573
g4
(lp1574
I0
aI4
aI3
aI1
aI2
aI5
asg6
VIs it bigger than a dog
p1575
sg8
(lp1576
I129
aI164
aI29
aI135
aI100
aI17
asg10
(lp1577
(lp1578
I78
aF-1
aa(lp1579
I75
aF1
aa(lp1580
I0
aF1
aa(lp1581
I134
aF1
aasg12
I362
sa(dp1582
g4
(lp1583
I0
aI2
aI4
aI3
aI1
aI5
asg6
VIs it larger than an adult man?
p1584
sg8
(lp1585
I129
aI164
aI29
aI135
aI100
aI17
asg10
(lp1586
(lp1587
I78
aF-1
aa(lp1588
I75
aF1
aa(lp1589
I0
aF1
aa(lp1590
I134
aF1
aasg12
I362
sa(dp1591
g4
(lp1592
I0
aI4
aI3
aI1
aI2
aI5
asg6
VDoes it have 4 legs?
p1593
sg8
(lp1594
I129
aI164
aI29
aI135
aI100
aI17
asg10
(lp1595
(lp1596
I78
aF-1
aa(lp1597
I75
aF1
aa(lp1598
I0
aF1
aa(lp1599
I134
aF1
aasg12
I362
sa(dp1600
g4
(lp1601
I0
aI4
aI3
aI1
aI5
aI2
asg6
VIs it smaller than a human?
p1602
sg8
(lp1603
I129
aI164
aI29
aI135
aI100
aI17
asg10
(lp1604
(lp1605
I78
aF-1
aa(lp1606
I75
aF1
aa(lp1607
I0
aF1
aa(lp1608
I134
aF1
aasg12
I362
sa(dp1609
g4
(lp1610
I0
aI3
aI4
aI2
aI1
aI5
asg6
VDoes it live in the water?
p1611
sg8
(lp1612
I129
aI164
aI29
aI135
aI100
aI17
asg10
(lp1613
(lp1614
I78
aF-1
aa(lp1615
I75
aF1
aa(lp1616
I0
aF1
aa(lp1617
I134
aF1
aasg12
I362
sa(dp1618
g4
(lp1619
I1
aI4
aI3
aI0
aI2
aI5
asg6
VIs it bigger than a dog?
p1620
sg8
(lp1621
I129
aI164
aI29
aI135
aI100
aI17
asg10
(lp1622
(lp1623
I78
aF-1
aa(lp1624
I75
aF1
aa(lp1625
I0
aF1
aa(lp1626
I134
aF1
aasg12
I362
sa(dp1627
g4
(lp1628
I0
aI4
aI2
aI1
aI3
aI5
asg6
Vcan it fly
p1629
sg8
(lp1630
I129
aI164
aI29
aI135
aI100
aI17
asg10
(lp1631
(lp1632
I78
aF-1
aa(lp1633
I75
aF1
aa(lp1634
I0
aF1
aa(lp1635
I134
aF1
aasg12
I362
sa(dp1636
g4
(lp1637
I0
aI3
aI1
aI2
aI4
aI5
asg6
VCan it be a pet?
p1638
sg8
(lp1639
I129
aI164
aI29
aI135
aI100
aI17
asg10
(lp1640
(lp1641
I78
aF-1
aa(lp1642
I75
aF1
aa(lp1643
I0
aF1
aa(lp1644
I134
aF1
aasg12
I362
sa(dp1645
g4
(lp1646
I0
aI4
aI3
aI2
aI1
aI5
asg6
VCAN YOU CARRY IT IN YOUR ARMS?
p1647
sg8
(lp1648
I129
aI164
aI29
aI135
aI100
aI17
asg10
(lp1649
(lp1650
I78
aF-1
aa(lp1651
I75
aF1
aa(lp1652
I0
aF1
aa(lp1653
I134
aF1
aasg12
I362
sa(dp1654
g4
(lp1655
I0
aI3
aI4
aI1
aI2
aI5
asg6
VIs it bigger than a dog?
p1656
sg8
(lp1657
I129
aI164
aI29
aI135
aI100
aI17
asg10
(lp1658
(lp1659
I78
aF-1
aa(lp1660
I75
aF1
aa(lp1661
I0
aF1
aa(lp1662
I134
aF1
aasg12
I362
sa(dp1663
g4
(lp1664
I0
aI3
aI1
aI2
aI4
aI5
asg6
VIs it smart?
p1665
sg8
(lp1666
I129
aI164
aI29
aI135
aI100
aI17
asg10
(lp1667
(lp1668
I78
aF-1
aa(lp1669
I75
aF1
aa(lp1670
I0
aF1
aa(lp1671
I134
aF1
aasg12
I362
saa(lp1672
(dp1673
g4
(lp1674
I3
aI2
aI4
aI1
aI5
aI0
asg6
VIs it black?
p1675
sg8
(lp1676
I159
aI193
aI139
aI200
aI102
aI16
asg10
(lp1677
(lp1678
I76
aF1
aa(lp1679
I0
aF0
aa(lp1680
I63
aF1
aa(lp1681
I119
aF1
aa(lp1682
I91
aF-1
aa(lp1683
I134
aF1
aasg12
I285
sa(dp1684
g4
(lp1685
I3
aI1
aI4
aI2
aI0
aI5
asg6
VCan you hold it in your hand?
p1686
sg8
(lp1687
I159
aI193
aI139
aI200
aI102
aI16
asg10
(lp1688
(lp1689
I76
aF1
aa(lp1690
I0
aF0
aa(lp1691
I63
aF1
aa(lp1692
I119
aF1
aa(lp1693
I91
aF-1
aa(lp1694
I134
aF1
aasg12
I285
sa(dp1695
g4
(lp1696
I3
aI1
aI2
aI0
aI4
aI5
asg6
VDoes it have feet
p1697
sg8
(lp1698
I159
aI193
aI139
aI200
aI102
aI16
asg10
(lp1699
(lp1700
I76
aF1
aa(lp1701
I0
aF0
aa(lp1702
I63
aF1
aa(lp1703
I119
aF1
aa(lp1704
I91
aF-1
aa(lp1705
I134
aF1
aasg12
I285
sa(dp1706
g4
(lp1707
I3
aI4
aI1
aI2
aI0
aI5
asg6
VIs it bigger than human?
p1708
sg8
(lp1709
I159
aI193
aI139
aI200
aI102
aI16
asg10
(lp1710
(lp1711
I76
aF1
aa(lp1712
I0
aF0
aa(lp1713
I63
aF1
aa(lp1714
I119
aF1
aa(lp1715
I91
aF-1
aa(lp1716
I134
aF1
aasg12
I285
sa(dp1717
g4
(lp1718
I3
aI1
aI2
aI4
aI0
aI5
asg6
Vis it a carnivore?
p1719
sg8
(lp1720
I159
aI193
aI139
aI200
aI102
aI16
asg10
(lp1721
(lp1722
I76
aF1
aa(lp1723
I0
aF0
aa(lp1724
I63
aF1
aa(lp1725
I119
aF1
aa(lp1726
I91
aF-1
aa(lp1727
I134
aF1
aasg12
I285
sa(dp1728
g4
(lp1729
I3
aI2
aI4
aI1
aI0
aI5
asg6
Vcan you hold it in one hand
p1730
sg8
(lp1731
I159
aI193
aI139
aI200
aI102
aI16
asg10
(lp1732
(lp1733
I76
aF1
aa(lp1734
I0
aF0
aa(lp1735
I63
aF1
aa(lp1736
I119
aF1
aa(lp1737
I91
aF-1
aa(lp1738
I134
aF1
aasg12
I285
sa(dp1739
g4
(lp1740
I3
aI1
aI2
aI4
aI0
aI5
asg6
VDoes it have four legs?
p1741
sg8
(lp1742
I159
aI193
aI139
aI200
aI102
aI16
asg10
(lp1743
(lp1744
I76
aF1
aa(lp1745
I0
aF0
aa(lp1746
I63
aF1
aa(lp1747
I119
aF1
aa(lp1748
I91
aF-1
aa(lp1749
I134
aF1
aasg12
I285
sa(dp1750
g4
(lp1751
I1
aI2
aI4
aI0
aI5
aI3
asg6
VIs it a person?
p1752
sg8
(lp1753
I159
aI193
aI139
aI200
aI102
aI16
asg10
(lp1754
(lp1755
I76
aF1
aa(lp1756
I0
aF0
aa(lp1757
I63
aF1
aa(lp1758
I119
aF1
aa(lp1759
I91
aF-1
aa(lp1760
I134
aF1
aasg12
I285
sa(dp1761
g4
(lp1762
I3
aI1
aI2
aI4
aI0
aI5
asg6
VWhat color is it?
p1763
sg8
(lp1764
I159
aI193
aI139
aI200
aI102
aI16
asg10
(lp1765
(lp1766
I76
aF1
aa(lp1767
I0
aF0
aa(lp1768
I63
aF1
aa(lp1769
I119
aF1
aa(lp1770
I91
aF-1
aa(lp1771
I134
aF1
aasg12
I285
sa(dp1772
g4
(lp1773
I2
aI1
aI3
aI0
aI4
aI5
asg6
VIs it a primate?
p1774
sg8
(lp1775
I159
aI193
aI139
aI200
aI102
aI16
asg10
(lp1776
(lp1777
I76
aF1
aa(lp1778
I0
aF0
aa(lp1779
I63
aF1
aa(lp1780
I119
aF1
aa(lp1781
I91
aF-1
aa(lp1782
I134
aF1
aasg12
I285
sa(dp1783
g4
(lp1784
I2
aI0
aI4
aI1
aI3
aI5
asg6
VCan you wear it?
p1785
sg8
(lp1786
I159
aI193
aI139
aI200
aI102
aI16
asg10
(lp1787
(lp1788
I76
aF1
aa(lp1789
I0
aF0
aa(lp1790
I63
aF1
aa(lp1791
I119
aF1
aa(lp1792
I91
aF-1
aa(lp1793
I134
aF1
aasg12
I285
sa(dp1794
g4
(lp1795
I3
aI1
aI4
aI2
aI0
aI5
asg6
VWhat is it's name
p1796
sg8
(lp1797
I159
aI193
aI139
aI200
aI102
aI16
asg10
(lp1798
(lp1799
I76
aF1
aa(lp1800
I0
aF0
aa(lp1801
I63
aF1
aa(lp1802
I119
aF1
aa(lp1803
I91
aF-1
aa(lp1804
I134
aF1
aasg12
I285
sa(dp1805
g4
(lp1806
I1
aI4
aI0
aI5
aI3
aI2
asg6
VCan you buy it?
p1807
sg8
(lp1808
I159
aI193
aI139
aI200
aI102
aI16
asg10
(lp1809
(lp1810
I76
aF1
aa(lp1811
I0
aF0
aa(lp1812
I63
aF1
aa(lp1813
I119
aF1
aa(lp1814
I91
aF-1
aa(lp1815
I134
aF1
aasg12
I285
sa(dp1816
g4
(lp1817
I1
aI3
aI4
aI2
aI0
aI5
asg6
VWhat color is it
p1818
sg8
(lp1819
I159
aI193
aI139
aI200
aI102
aI16
asg10
(lp1820
(lp1821
I76
aF1
aa(lp1822
I0
aF0
aa(lp1823
I63
aF1
aa(lp1824
I119
aF1
aa(lp1825
I91
aF-1
aa(lp1826
I134
aF1
aasg12
I285
sa(dp1827
g4
(lp1828
I1
aI3
aI4
aI2
aI0
aI5
asg6
VIs it larger than a basketball?
p1829
sg8
(lp1830
I159
aI193
aI139
aI200
aI102
aI16
asg10
(lp1831
(lp1832
I76
aF1
aa(lp1833
I0
aF0
aa(lp1834
I63
aF1
aa(lp1835
I119
aF1
aa(lp1836
I91
aF-1
aa(lp1837
I134
aF1
aasg12
I285
sa(dp1838
g4
(lp1839
I2
aI3
aI1
aI4
aI0
aI5
asg6
Vdoes it breath air?
p1840
sg8
(lp1841
I159
aI193
aI139
aI200
aI102
aI16
asg10
(lp1842
(lp1843
I76
aF1
aa(lp1844
I0
aF0
aa(lp1845
I63
aF1
aa(lp1846
I119
aF1
aa(lp1847
I91
aF-1
aa(lp1848
I134
aF1
aasg12
I285
sa(dp1849
g4
(lp1850
I1
aI0
aI2
aI4
aI3
aI5
asg6
VDoes it have four legs?
p1851
sg8
(lp1852
I159
aI193
aI139
aI200
aI102
aI16
asg10
(lp1853
(lp1854
I76
aF1
aa(lp1855
I0
aF0
aa(lp1856
I63
aF1
aa(lp1857
I119
aF1
aa(lp1858
I91
aF-1
aa(lp1859
I134
aF1
aasg12
I285
sa(dp1860
g4
(lp1861
I1
aI5
aI0
aI3
aI4
aI2
asg6
VIs it dead?
p1862
sg8
(lp1863
I159
aI193
aI139
aI200
aI102
aI16
asg10
(lp1864
(lp1865
I76
aF1
aa(lp1866
I0
aF0
aa(lp1867
I63
aF1
aa(lp1868
I119
aF1
aa(lp1869
I91
aF-1
aa(lp1870
I134
aF1
aasg12
I285
sa(dp1871
g4
(lp1872
I1
aI2
aI3
aI4
aI0
aI5
asg6
VDoes it live in social groups?
p1873
sg8
(lp1874
I159
aI193
aI139
aI200
aI102
aI16
asg10
(lp1875
(lp1876
I76
aF1
aa(lp1877
I0
aF0
aa(lp1878
I63
aF1
aa(lp1879
I119
aF1
aa(lp1880
I91
aF-1
aa(lp1881
I134
aF1
aasg12
I285
sa(dp1882
g4
(lp1883
I1
aI2
aI0
aI5
aI3
aI4
asg6
Vdoes it stand on legs
p1884
sg8
(lp1885
I159
aI193
aI139
aI200
aI102
aI16
asg10
(lp1886
(lp1887
I76
aF1
aa(lp1888
I0
aF0
aa(lp1889
I63
aF1
aa(lp1890
I119
aF1
aa(lp1891
I91
aF-1
aa(lp1892
I134
aF1
aasg12
I285
sa(dp1893
g4
(lp1894
I1
aI3
aI2
aI4
aI0
aI5
asg6
VIs it domesticated?
p1895
sg8
(lp1896
I159
aI193
aI139
aI200
aI102
aI16
asg10
(lp1897
(lp1898
I76
aF1
aa(lp1899
I0
aF0
aa(lp1900
I63
aF1
aa(lp1901
I119
aF1
aa(lp1902
I91
aF-1
aa(lp1903
I134
aF1
aasg12
I285
sa(dp1904
g4
(lp1905
I2
aI1
aI5
aI0
aI3
aI4
asg6
VIS IT A HUMAN?
p1906
sg8
(lp1907
I159
aI193
aI139
aI200
aI102
aI16
asg10
(lp1908
(lp1909
I76
aF1
aa(lp1910
I0
aF0
aa(lp1911
I63
aF1
aa(lp1912
I119
aF1
aa(lp1913
I91
aF-1
aa(lp1914
I134
aF1
aasg12
I285
sa(dp1915
g4
(lp1916
I4
aI1
aI2
aI3
aI0
aI5
asg6
VDoes it speak?
p1917
sg8
(lp1918
I159
aI193
aI139
aI200
aI102
aI16
asg10
(lp1919
(lp1920
I76
aF1
aa(lp1921
I0
aF0
aa(lp1922
I63
aF1
aa(lp1923
I119
aF1
aa(lp1924
I91
aF-1
aa(lp1925
I134
aF1
aasg12
I285
sa(dp1926
g4
(lp1927
I1
aI3
aI2
aI4
aI0
aI5
asg6
VDoes it have two legs?
p1928
sg8
(lp1929
I159
aI193
aI139
aI200
aI102
aI16
asg10
(lp1930
(lp1931
I76
aF1
aa(lp1932
I0
aF0
aa(lp1933
I63
aF1
aa(lp1934
I119
aF1
aa(lp1935
I91
aF-1
aa(lp1936
I134
aF1
aasg12
I285
saa(lp1937
(dp1938
g4
(lp1939
I4
aI1
aI0
aI5
aI2
aI3
asg6
VWhat color is it?
p1940
sg8
(lp1941
I146
aI123
aI103
aI212
aI87
aI3
asg10
(lp1942
(lp1943
I207
aF-0.5
aa(lp1944
I78
aF-1
aa(lp1945
I82
aF1
aa(lp1946
I76
aF1
aa(lp1947
I75
aF1
aa(lp1948
I69
aF0.5
aasg12
I703
sa(dp1949
g4
(lp1950
I1
aI3
aI2
aI4
aI0
aI5
asg6
VDoes it swim?
p1951
sg8
(lp1952
I146
aI123
aI103
aI212
aI87
aI3
asg10
(lp1953
(lp1954
I207
aF-0.5
aa(lp1955
I78
aF-1
aa(lp1956
I82
aF1
aa(lp1957
I76
aF1
aa(lp1958
I75
aF1
aa(lp1959
I69
aF0.5
aasg12
I703
sa(dp1960
g4
(lp1961
I2
aI3
aI4
aI0
aI1
aI5
asg6
Vis it a mammal
p1962
sg8
(lp1963
I146
aI123
aI103
aI212
aI87
aI3
asg10
(lp1964
(lp1965
I207
aF-0.5
aa(lp1966
I78
aF-1
aa(lp1967
I82
aF1
aa(lp1968
I76
aF1
aa(lp1969
I75
aF1
aa(lp1970
I69
aF0.5
aasg12
I703
sa(dp1971
g4
(lp1972
I3
aI4
aI0
aI1
aI5
aI2
asg6
VDoes it swim?
p1973
sg8
(lp1974
I146
aI123
aI103
aI212
aI87
aI3
asg10
(lp1975
(lp1976
I207
aF-0.5
aa(lp1977
I78
aF-1
aa(lp1978
I82
aF1
aa(lp1979
I76
aF1
aa(lp1980
I75
aF1
aa(lp1981
I69
aF0.5
aasg12
I703
sa(dp1982
g4
(lp1983
I4
aI1
aI3
aI2
aI0
aI5
asg6
Vis it microscopic?
p1984
sg8
(lp1985
I146
aI123
aI103
aI212
aI87
aI3
asg10
(lp1986
(lp1987
I207
aF-0.5
aa(lp1988
I78
aF-1
aa(lp1989
I82
aF1
aa(lp1990
I76
aF1
aa(lp1991
I75
aF1
aa(lp1992
I69
aF0.5
aasg12
I703
sa(dp1993
g4
(lp1994
I4
aI2
aI3
aI1
aI0
aI5
asg6
Vcan you hold it in one hand?
p1995
sg8
(lp1996
I146
aI123
aI103
aI212
aI87
aI3
asg10
(lp1997
(lp1998
I207
aF-0.5
aa(lp1999
I78
aF-1
aa(lp2000
I82
aF1
aa(lp2001
I76
aF1
aa(lp2002
I75
aF1
aa(lp2003
I69
aF0.5
aasg12
I703
sa(dp2004
g4
(lp2005
I4
aI1
aI3
aI2
aI0
aI5
asg6
VDoes it have gills?
p2006
sg8
(lp2007
I146
aI123
aI103
aI212
aI87
aI3
asg10
(lp2008
(lp2009
I207
aF-0.5
aa(lp2010
I78
aF-1
aa(lp2011
I82
aF1
aa(lp2012
I76
aF1
aa(lp2013
I75
aF1
aa(lp2014
I69
aF0.5
aasg12
I703
sa(dp2015
g4
(lp2016
I2
aI3
aI1
aI0
aI5
aI4
asg6
VIs it a turtle
p2017
sg8
(lp2018
I146
aI123
aI103
aI212
aI87
aI3
asg10
(lp2019
(lp2020
I207
aF-0.5
aa(lp2021
I78
aF-1
aa(lp2022
I82
aF1
aa(lp2023
I76
aF1
aa(lp2024
I75
aF1
aa(lp2025
I69
aF0.5
aasg12
I703
sa(dp2026
g4
(lp2027
I2
aI0
aI1
aI3
aI4
aI5
asg6
VDoes it eat grass?
p2028
sg8
(lp2029
I146
aI123
aI103
aI212
aI87
aI3
asg10
(lp2030
(lp2031
I207
aF-0.5
aa(lp2032
I78
aF-1
aa(lp2033
I82
aF1
aa(lp2034
I76
aF1
aa(lp2035
I75
aF1
aa(lp2036
I69
aF0.5
aasg12
I703
sa(dp2037
g4
(lp2038
I2
aI1
aI3
aI4
aI5
aI0
asg6
VDo we eat it?
p2039
sg8
(lp2040
I146
aI123
aI103
aI212
aI87
aI3
asg10
(lp2041
(lp2042
I207
aF-0.5
aa(lp2043
I78
aF-1
aa(lp2044
I82
aF1
aa(lp2045
I76
aF1
aa(lp2046
I75
aF1
aa(lp2047
I69
aF0.5
aasg12
I703
sa(dp2048
g4
(lp2049
I4
aI2
aI0
aI1
aI5
aI3
asg6
VCan you wear it?
p2050
sg8
(lp2051
I146
aI123
aI103
aI212
aI87
aI3
asg10
(lp2052
(lp2053
I207
aF-0.5
aa(lp2054
I78
aF-1
aa(lp2055
I82
aF1
aa(lp2056
I76
aF1
aa(lp2057
I75
aF1
aa(lp2058
I69
aF0.5
aasg12
I703
sa(dp2059
g4
(lp2060
I1
aI4
aI2
aI3
aI0
aI5
asg6
Vwhat is it called?
p2061
sg8
(lp2062
I146
aI123
aI103
aI212
aI87
aI3
asg10
(lp2063
(lp2064
I207
aF-0.5
aa(lp2065
I78
aF-1
aa(lp2066
I82
aF1
aa(lp2067
I76
aF1
aa(lp2068
I75
aF1
aa(lp2069
I69
aF0.5
aasg12
I703
sa(dp2070
g4
(lp2071
I0
aI4
aI2
aI1
aI5
aI3
asg6
VCan you buy it?
p2072
sg8
(lp2073
I146
aI123
aI103
aI212
aI87
aI3
asg10
(lp2074
(lp2075
I207
aF-0.5
aa(lp2076
I78
aF-1
aa(lp2077
I82
aF1
aa(lp2078
I76
aF1
aa(lp2079
I75
aF1
aa(lp2080
I69
aF0.5
aasg12
I703
sa(dp2081
g4
(lp2082
I4
aI2
aI5
aI1
aI0
aI3
asg6
VIs it bigger than a car
p2083
sg8
(lp2084
I146
aI123
aI103
aI212
aI87
aI3
asg10
(lp2085
(lp2086
I207
aF-0.5
aa(lp2087
I78
aF-1
aa(lp2088
I82
aF1
aa(lp2089
I76
aF1
aa(lp2090
I75
aF1
aa(lp2091
I69
aF0.5
aasg12
I703
sa(dp2092
g4
(lp2093
I3
aI2
aI1
aI4
aI5
aI0
asg6
VDoes it have legs?
p2094
sg8
(lp2095
I146
aI123
aI103
aI212
aI87
aI3
asg10
(lp2096
(lp2097
I207
aF-0.5
aa(lp2098
I78
aF-1
aa(lp2099
I82
aF1
aa(lp2100
I76
aF1
aa(lp2101
I75
aF1
aa(lp2102
I69
aF0.5
aasg12
I703
sa(dp2103
g4
(lp2104
I1
aI4
aI2
aI0
aI3
aI5
asg6
VDoes it breath air?
p2105
sg8
(lp2106
I146
aI123
aI103
aI212
aI87
aI3
asg10
(lp2107
(lp2108
I207
aF-0.5
aa(lp2109
I78
aF-1
aa(lp2110
I82
aF1
aa(lp2111
I76
aF1
aa(lp2112
I75
aF1
aa(lp2113
I69
aF0.5
aasg12
I703
sa(dp2114
g4
(lp2115
I2
aI3
aI0
aI1
aI4
aI5
asg6
VCan you hold it in one hand?
p2116
sg8
(lp2117
I146
aI123
aI103
aI212
aI87
aI3
asg10
(lp2118
(lp2119
I207
aF-0.5
aa(lp2120
I78
aF-1
aa(lp2121
I82
aF1
aa(lp2122
I76
aF1
aa(lp2123
I75
aF1
aa(lp2124
I69
aF0.5
aasg12
I703
sa(dp2125
g4
(lp2126
I2
aI1
aI3
aI5
aI4
aI0
asg6
VWould you find it in a house?
p2127
sg8
(lp2128
I146
aI123
aI103
aI212
aI87
aI3
asg10
(lp2129
(lp2130
I207
aF-0.5
aa(lp2131
I78
aF-1
aa(lp2132
I82
aF1
aa(lp2133
I76
aF1
aa(lp2134
I75
aF1
aa(lp2135
I69
aF0.5
aasg12
I703
sa(dp2136
g4
(lp2137
I2
aI4
aI1
aI5
aI0
aI3
asg6
VIs it an amphibian? 
p2138
sg8
(lp2139
I146
aI123
aI103
aI212
aI87
aI3
asg10
(lp2140
(lp2141
I207
aF-0.5
aa(lp2142
I78
aF-1
aa(lp2143
I82
aF1
aa(lp2144
I76
aF1
aa(lp2145
I75
aF1
aa(lp2146
I69
aF0.5
aasg12
I703
sa(dp2147
g4
(lp2148
I2
aI1
aI4
aI3
aI0
aI5
asg6
VCan if fly?
p2149
sg8
(lp2150
I146
aI123
aI103
aI212
aI87
aI3
asg10
(lp2151
(lp2152
I207
aF-0.5
aa(lp2153
I78
aF-1
aa(lp2154
I82
aF1
aa(lp2155
I76
aF1
aa(lp2156
I75
aF1
aa(lp2157
I69
aF0.5
aasg12
I703
sa(dp2158
g4
(lp2159
I2
aI4
aI1
aI3
aI0
aI5
asg6
VDoes it have sharp teeth?
p2160
sg8
(lp2161
I146
aI123
aI103
aI212
aI87
aI3
asg10
(lp2162
(lp2163
I207
aF-0.5
aa(lp2164
I78
aF-1
aa(lp2165
I82
aF1
aa(lp2166
I76
aF1
aa(lp2167
I75
aF1
aa(lp2168
I69
aF0.5
aasg12
I703
sa(dp2169
g4
(lp2170
I4
aI2
aI1
aI3
aI0
aI5
asg6
VDOES IT HAVE 4 LEGS?
p2171
sg8
(lp2172
I146
aI123
aI103
aI212
aI87
aI3
asg10
(lp2173
(lp2174
I207
aF-0.5
aa(lp2175
I78
aF-1
aa(lp2176
I82
aF1
aa(lp2177
I76
aF1
aa(lp2178
I75
aF1
aa(lp2179
I69
aF0.5
aasg12
I703
sa(dp2180
g4
(lp2181
I3
aI1
aI4
aI0
aI2
aI5
asg6
VIs it bigger than a dog?
p2182
sg8
(lp2183
I146
aI123
aI103
aI212
aI87
aI3
asg10
(lp2184
(lp2185
I207
aF-0.5
aa(lp2186
I78
aF-1
aa(lp2187
I82
aF1
aa(lp2188
I76
aF1
aa(lp2189
I75
aF1
aa(lp2190
I69
aF0.5
aasg12
I703
sa(dp2191
g4
(lp2192
I1
aI2
aI4
aI0
aI3
aI5
asg6
VIs it a reptile?
p2193
sg8
(lp2194
I146
aI123
aI103
aI212
aI87
aI3
asg10
(lp2195
(lp2196
I207
aF-0.5
aa(lp2197
I78
aF-1
aa(lp2198
I82
aF1
aa(lp2199
I76
aF1
aa(lp2200
I75
aF1
aa(lp2201
I69
aF0.5
aasg12
I703
saa(lp2202
(dp2203
g4
(lp2204
I4
aI3
aI5
aI0
aI2
aI1
asg6
VDoes it eat?
p2205
sg8
(lp2206
I197
aI187
aI41
aI177
aI57
aI206
asg10
(lp2207
(lp2208
I82
aF1
aa(lp2209
I207
aF1
aa(lp2210
I205
aF-1
aa(lp2211
I216
aF1
aa(lp2212
I78
aF-1
aa(lp2213
I181
aF1
aasg12
I922
sa(dp2214
g4
(lp2215
I0
aI5
aI1
aI3
aI2
aI4
asg6
VIs it alive?
p2216
sg8
(lp2217
I197
aI187
aI41
aI177
aI57
aI206
asg10
(lp2218
(lp2219
I82
aF1
aa(lp2220
I207
aF1
aa(lp2221
I205
aF-1
aa(lp2222
I216
aF1
aa(lp2223
I78
aF-1
aa(lp2224
I181
aF1
aasg12
I922
sa(dp2225
g4
(lp2226
I0
aI5
aI2
aI3
aI4
aI1
asg6
Vcan you live in it
p2227
sg8
(lp2228
I197
aI187
aI41
aI177
aI57
aI206
asg10
(lp2229
(lp2230
I82
aF1
aa(lp2231
I207
aF1
aa(lp2232
I205
aF-1
aa(lp2233
I216
aF1
aa(lp2234
I78
aF-1
aa(lp2235
I181
aF1
aasg12
I922
sa(dp2236
g4
(lp2237
I4
aI0
aI2
aI3
aI1
aI5
asg6
VIs it black?
p2238
sg8
(lp2239
I197
aI187
aI41
aI177
aI57
aI206
asg10
(lp2240
(lp2241
I82
aF1
aa(lp2242
I207
aF1
aa(lp2243
I205
aF-1
aa(lp2244
I216
aF1
aa(lp2245
I78
aF-1
aa(lp2246
I181
aF1
aasg12
I922
sa(dp2247
g4
(lp2248
I2
aI0
aI3
aI4
aI1
aI5
asg6
Vis it a mammal?
p2249
sg8
(lp2250
I197
aI187
aI41
aI177
aI57
aI206
asg10
(lp2251
(lp2252
I82
aF1
aa(lp2253
I207
aF1
aa(lp2254
I205
aF-1
aa(lp2255
I216
aF1
aa(lp2256
I78
aF-1
aa(lp2257
I181
aF1
aasg12
I922
sa(dp2258
g4
(lp2259
I3
aI1
aI0
aI2
aI4
aI5
asg6
Vcan you hold it with one hand?
p2260
sg8
(lp2261
I197
aI187
aI41
aI177
aI57
aI206
asg10
(lp2262
(lp2263
I82
aF1
aa(lp2264
I207
aF1
aa(lp2265
I205
aF-1
aa(lp2266
I216
aF1
aa(lp2267
I78
aF-1
aa(lp2268
I181
aF1
aasg12
I922
sa(dp2269
g4
(lp2270
I0
aI2
aI4
aI1
aI5
aI3
asg6
VIs it large?
p2271
sg8
(lp2272
I197
aI187
aI41
aI177
aI57
aI206
asg10
(lp2273
(lp2274
I82
aF1
aa(lp2275
I207
aF1
aa(lp2276
I205
aF-1
aa(lp2277
I216
aF1
aa(lp2278
I78
aF-1
aa(lp2279
I181
aF1
aasg12
I922
sa(dp2280
g4
(lp2281
I2
aI1
aI0
aI4
aI3
aI5
asg6
Vis it a cat
p2282
sg8
(lp2283
I197
aI187
aI41
aI177
aI57
aI206
asg10
(lp2284
(lp2285
I82
aF1
aa(lp2286
I207
aF1
aa(lp2287
I205
aF-1
aa(lp2288
I216
aF1
aa(lp2289
I78
aF-1
aa(lp2290
I181
aF1
aasg12
I922
sa(dp2291
g4
(lp2292
I3
aI5
aI0
aI1
aI4
aI2
asg6
VDoes it have fur?
p2293
sg8
(lp2294
I197
aI187
aI41
aI177
aI57
aI206
asg10
(lp2295
(lp2296
I82
aF1
aa(lp2297
I207
aF1
aa(lp2298
I205
aF-1
aa(lp2299
I216
aF1
aa(lp2300
I78
aF-1
aa(lp2301
I181
aF1
aasg12
I922
sa(dp2302
g4
(lp2303
I0
aI3
aI1
aI4
aI2
aI5
asg6
VIs it a pet?
p2304
sg8
(lp2305
I197
aI187
aI41
aI177
aI57
aI206
asg10
(lp2306
(lp2307
I82
aF1
aa(lp2308
I207
aF1
aa(lp2309
I205
aF-1
aa(lp2310
I216
aF1
aa(lp2311
I78
aF-1
aa(lp2312
I181
aF1
aasg12
I922
sa(dp2313
g4
(lp2314
I5
aI2
aI0
aI1
aI4
aI3
asg6
VIs it Alive?
p2315
sg8
(lp2316
I197
aI187
aI41
aI177
aI57
aI206
asg10
(lp2317
(lp2318
I82
aF1
aa(lp2319
I207
aF1
aa(lp2320
I205
aF-1
aa(lp2321
I216
aF1
aa(lp2322
I78
aF-1
aa(lp2323
I181
aF1
aasg12
I922
sa(dp2324
g4
(lp2325
I2
aI3
aI5
aI1
aI0
aI4
asg6
VWhat is it called?
p2326
sg8
(lp2327
I197
aI187
aI41
aI177
aI57
aI206
asg10
(lp2328
(lp2329
I82
aF1
aa(lp2330
I207
aF1
aa(lp2331
I205
aF-1
aa(lp2332
I216
aF1
aa(lp2333
I78
aF-1
aa(lp2334
I181
aF1
aasg12
I922
sa(dp2335
g4
(lp2336
I3
aI2
aI5
aI0
aI4
aI1
asg6
VIs it alive?
p2337
sg8
(lp2338
I197
aI187
aI41
aI177
aI57
aI206
asg10
(lp2339
(lp2340
I82
aF1
aa(lp2341
I207
aF1
aa(lp2342
I205
aF-1
aa(lp2343
I216
aF1
aa(lp2344
I78
aF-1
aa(lp2345
I181
aF1
aasg12
I922
sa(dp2346
g4
(lp2347
I0
aI1
aI2
aI4
aI3
aI5
asg6
VWhat color is it?
p2348
sg8
(lp2349
I197
aI187
aI41
aI177
aI57
aI206
asg10
(lp2350
(lp2351
I82
aF1
aa(lp2352
I207
aF1
aa(lp2353
I205
aF-1
aa(lp2354
I216
aF1
aa(lp2355
I78
aF-1
aa(lp2356
I181
aF1
aasg12
I922
sa(dp2357
g4
(lp2358
I0
aI2
aI3
aI4
aI1
aI5
asg6
VIs it larger than a pillow?
p2359
sg8
(lp2360
I197
aI187
aI41
aI177
aI57
aI206
asg10
(lp2361
(lp2362
I82
aF1
aa(lp2363
I207
aF1
aa(lp2364
I205
aF-1
aa(lp2365
I216
aF1
aa(lp2366
I78
aF-1
aa(lp2367
I181
aF1
aasg12
I922
sa(dp2368
g4
(lp2369
I0
aI3
aI4
aI2
aI5
aI1
asg6
VIs it a pet?
p2370
sg8
(lp2371
I197
aI187
aI41
aI177
aI57
aI206
asg10
(lp2372
(lp2373
I82
aF1
aa(lp2374
I207
aF1
aa(lp2375
I205
aF-1
aa(lp2376
I216
aF1
aa(lp2377
I78
aF-1
aa(lp2378
I181
aF1
aasg12
I922
sa(dp2379
g4
(lp2380
I3
aI0
aI1
aI2
aI4
aI5
asg6
VDoes it have legs?
p2381
sg8
(lp2382
I197
aI187
aI41
aI177
aI57
aI206
asg10
(lp2383
(lp2384
I82
aF1
aa(lp2385
I207
aF1
aa(lp2386
I205
aF-1
aa(lp2387
I216
aF1
aa(lp2388
I78
aF-1
aa(lp2389
I181
aF1
aasg12
I922
sa(dp2390
g4
(lp2391
I3
aI2
aI0
aI5
aI1
aI4
asg6
VIs it alive?
p2392
sg8
(lp2393
I197
aI187
aI41
aI177
aI57
aI206
asg10
(lp2394
(lp2395
I82
aF1
aa(lp2396
I207
aF1
aa(lp2397
I205
aF-1
aa(lp2398
I216
aF1
aa(lp2399
I78
aF-1
aa(lp2400
I181
aF1
aasg12
I922
sa(dp2401
g4
(lp2402
I3
aI1
aI4
aI2
aI0
aI5
asg6
VIs it an object?
p2403
sg8
(lp2404
I197
aI187
aI41
aI177
aI57
aI206
asg10
(lp2405
(lp2406
I82
aF1
aa(lp2407
I207
aF1
aa(lp2408
I205
aF-1
aa(lp2409
I216
aF1
aa(lp2410
I78
aF-1
aa(lp2411
I181
aF1
aasg12
I922
sa(dp2412
g4
(lp2413
I2
aI0
aI4
aI3
aI1
aI5
asg6
Vcan it fly
p2414
sg8
(lp2415
I197
aI187
aI41
aI177
aI57
aI206
asg10
(lp2416
(lp2417
I82
aF1
aa(lp2418
I207
aF1
aa(lp2419
I205
aF-1
aa(lp2420
I216
aF1
aa(lp2421
I78
aF-1
aa(lp2422
I181
aF1
aasg12
I922
sa(dp2423
g4
(lp2424
I0
aI4
aI3
aI2
aI1
aI5
asg6
VIs it a pet?
p2425
sg8
(lp2426
I197
aI187
aI41
aI177
aI57
aI206
asg10
(lp2427
(lp2428
I82
aF1
aa(lp2429
I207
aF1
aa(lp2430
I205
aF-1
aa(lp2431
I216
aF1
aa(lp2432
I78
aF-1
aa(lp2433
I181
aF1
aasg12
I922
sa(dp2434
g4
(lp2435
I2
aI4
aI1
aI0
aI3
aI5
asg6
VDO YOU HOLD IT IN YOUR HANDS TO USE IT?
p2436
sg8
(lp2437
I197
aI187
aI41
aI177
aI57
aI206
asg10
(lp2438
(lp2439
I82
aF1
aa(lp2440
I207
aF1
aa(lp2441
I205
aF-1
aa(lp2442
I216
aF1
aa(lp2443
I78
aF-1
aa(lp2444
I181
aF1
aasg12
I922
sa(dp2445
g4
(lp2446
I2
aI4
aI0
aI1
aI3
aI5
asg6
VIs it alive?
p2447
sg8
(lp2448
I197
aI187
aI41
aI177
aI57
aI206
asg10
(lp2449
(lp2450
I82
aF1
aa(lp2451
I207
aF1
aa(lp2452
I205
aF-1
aa(lp2453
I216
aF1
aa(lp2454
I78
aF-1
aa(lp2455
I181
aF1
aasg12
I922
sa(dp2456
g4
(lp2457
I0
aI3
aI4
aI2
aI1
aI5
asg6
VIs it living?
p2458
sg8
(lp2459
I197
aI187
aI41
aI177
aI57
aI206
asg10
(lp2460
(lp2461
I82
aF1
aa(lp2462
I207
aF1
aa(lp2463
I205
aF-1
aa(lp2464
I216
aF1
aa(lp2465
I78
aF-1
aa(lp2466
I181
aF1
aasg12
I922
saa(lp2467
(dp2468
g4
(lp2469
I4
aI1
aI5
aI3
aI2
aI0
asg6
VIs it expensive?
p2470
sg8
(lp2471
I116
aI67
aI72
aI112
aI68
aI107
asg10
(lp2472
(lp2473
I78
aF0
aa(lp2474
I153
aF-1
aa(lp2475
I216
aF1
aa(lp2476
I168
aF1
aa(lp2477
I63
aF0.5
aa(lp2478
I143
aF1
aasg12
I13
sa(dp2479
g4
(lp2480
I0
aI3
aI4
aI1
aI2
aI5
asg6
VDoes it come in different shapes?
p2481
sg8
(lp2482
I116
aI67
aI72
aI112
aI68
aI107
asg10
(lp2483
(lp2484
I78
aF0
aa(lp2485
I153
aF-1
aa(lp2486
I216
aF1
aa(lp2487
I168
aF1
aa(lp2488
I63
aF0.5
aa(lp2489
I143
aF1
aasg12
I13
sa(dp2490
g4
(lp2491
I3
aI1
aI4
aI0
aI2
aI5
asg6
VDoes it cast a shadow
p2492
sg8
(lp2493
I116
aI67
aI72
aI112
aI68
aI107
asg10
(lp2494
(lp2495
I78
aF0
aa(lp2496
I153
aF-1
aa(lp2497
I216
aF1
aa(lp2498
I168
aF1
aa(lp2499
I63
aF0.5
aa(lp2500
I143
aF1
aasg12
I13
sa(dp2501
g4
(lp2502
I4
aI0
aI2
aI3
aI1
aI5
asg6
VCan you freeze to death?
p2503
sg8
(lp2504
I116
aI67
aI72
aI112
aI68
aI107
asg10
(lp2505
(lp2506
I78
aF0
aa(lp2507
I153
aF-1
aa(lp2508
I216
aF1
aa(lp2509
I168
aF1
aa(lp2510
I63
aF0.5
aa(lp2511
I143
aF1
aasg12
I13
sa(dp2512
g4
(lp2513
I1
aI3
aI2
aI4
aI0
aI5
asg6
Vis it a building
p2514
sg8
(lp2515
I116
aI67
aI72
aI112
aI68
aI107
asg10
(lp2516
(lp2517
I78
aF0
aa(lp2518
I153
aF-1
aa(lp2519
I216
aF1
aa(lp2520
I168
aF1
aa(lp2521
I63
aF0.5
aa(lp2522
I143
aF1
aasg12
I13
sa(dp2523
g4
(lp2524
I1
aI4
aI2
aI3
aI0
aI5
asg6
Vis it cloth?
p2525
sg8
(lp2526
I116
aI67
aI72
aI112
aI68
aI107
asg10
(lp2527
(lp2528
I78
aF0
aa(lp2529
I153
aF-1
aa(lp2530
I216
aF1
aa(lp2531
I168
aF1
aa(lp2532
I63
aF0.5
aa(lp2533
I143
aF1
aasg12
I13
sa(dp2534
g4
(lp2535
I0
aI1
aI3
aI2
aI4
aI5
asg6
VIs it alive?
p2536
sg8
(lp2537
I116
aI67
aI72
aI112
aI68
aI107
asg10
(lp2538
(lp2539
I78
aF0
aa(lp2540
I153
aF-1
aa(lp2541
I216
aF1
aa(lp2542
I168
aF1
aa(lp2543
I63
aF0.5
aa(lp2544
I143
aF1
aasg12
I13
sa(dp2545
g4
(lp2546
I4
aI1
aI2
aI0
aI3
aI5
asg6
VIs a house
p2547
sg8
(lp2548
I116
aI67
aI72
aI112
aI68
aI107
asg10
(lp2549
(lp2550
I78
aF0
aa(lp2551
I153
aF-1
aa(lp2552
I216
aF1
aa(lp2553
I168
aF1
aa(lp2554
I63
aF0.5
aa(lp2555
I143
aF1
aasg12
I13
sa(dp2556
g4
(lp2557
I1
aI4
aI0
aI2
aI3
aI5
asg6
VDo you wear it?
p2558
sg8
(lp2559
I116
aI67
aI72
aI112
aI68
aI107
asg10
(lp2560
(lp2561
I78
aF0
aa(lp2562
I153
aF-1
aa(lp2563
I216
aF1
aa(lp2564
I168
aF1
aa(lp2565
I63
aF0.5
aa(lp2566
I143
aF1
aasg12
I13
sa(dp2567
g4
(lp2568
I0
aI1
aI2
aI3
aI4
aI5
asg6
VIs it bigger than a car?
p2569
sg8
(lp2570
I116
aI67
aI72
aI112
aI68
aI107
asg10
(lp2571
(lp2572
I78
aF0
aa(lp2573
I153
aF-1
aa(lp2574
I216
aF1
aa(lp2575
I168
aF1
aa(lp2576
I63
aF0.5
aa(lp2577
I143
aF1
aasg12
I13
sa(dp2578
g4
(lp2579
I3
aI0
aI4
aI5
aI1
aI2
asg6
VCan you wear it?
p2580
sg8
(lp2581
I116
aI67
aI72
aI112
aI68
aI107
asg10
(lp2582
(lp2583
I78
aF0
aa(lp2584
I153
aF-1
aa(lp2585
I216
aF1
aa(lp2586
I168
aF1
aa(lp2587
I63
aF0.5
aa(lp2588
I143
aF1
aasg12
I13
sa(dp2589
g4
(lp2590
I4
aI2
aI3
aI1
aI0
aI5
asg6
Vwhat is it called?
p2591
sg8
(lp2592
I116
aI67
aI72
aI112
aI68
aI107
asg10
(lp2593
(lp2594
I78
aF0
aa(lp2595
I153
aF-1
aa(lp2596
I216
aF1
aa(lp2597
I168
aF1
aa(lp2598
I63
aF0.5
aa(lp2599
I143
aF1
aasg12
I13
sa(dp2600
g4
(lp2601
I1
aI0
aI3
aI5
aI2
aI4
asg6
VIs it living?
p2602
sg8
(lp2603
I116
aI67
aI72
aI112
aI68
aI107
asg10
(lp2604
(lp2605
I78
aF0
aa(lp2606
I153
aF-1
aa(lp2607
I216
aF1
aa(lp2608
I168
aF1
aa(lp2609
I63
aF0.5
aa(lp2610
I143
aF1
aasg12
I13
sa(dp2611
g4
(lp2612
I1
aI4
aI2
aI3
aI0
aI5
asg6
VWhat color is it
p2613
sg8
(lp2614
I116
aI67
aI72
aI112
aI68
aI107
asg10
(lp2615
(lp2616
I78
aF0
aa(lp2617
I153
aF-1
aa(lp2618
I216
aF1
aa(lp2619
I168
aF1
aa(lp2620
I63
aF0.5
aa(lp2621
I143
aF1
aasg12
I13
sa(dp2622
g4
(lp2623
I3
aI1
aI2
aI4
aI0
aI5
asg6
VIs it a building?
p2624
sg8
(lp2625
I116
aI67
aI72
aI112
aI68
aI107
asg10
(lp2626
(lp2627
I78
aF0
aa(lp2628
I153
aF-1
aa(lp2629
I216
aF1
aa(lp2630
I168
aF1
aa(lp2631
I63
aF0.5
aa(lp2632
I143
aF1
aasg12
I13
sa(dp2633
g4
(lp2634
I4
aI3
aI2
aI1
aI5
aI0
asg6
VIs it made of plastic?
p2635
sg8
(lp2636
I116
aI67
aI72
aI112
aI68
aI107
asg10
(lp2637
(lp2638
I78
aF0
aa(lp2639
I153
aF-1
aa(lp2640
I216
aF1
aa(lp2641
I168
aF1
aa(lp2642
I63
aF0.5
aa(lp2643
I143
aF1
aasg12
I13
sa(dp2644
g4
(lp2645
I0
aI1
aI4
aI3
aI2
aI5
asg6
VIs it bigger than a breadbox?
p2646
sg8
(lp2647
I116
aI67
aI72
aI112
aI68
aI107
asg10
(lp2648
(lp2649
I78
aF0
aa(lp2650
I153
aF-1
aa(lp2651
I216
aF1
aa(lp2652
I168
aF1
aa(lp2653
I63
aF0.5
aa(lp2654
I143
aF1
aasg12
I13
sa(dp2655
g4
(lp2656
I0
aI1
aI4
aI3
aI2
aI5
asg6
VDoes it have wheels?
p2657
sg8
(lp2658
I116
aI67
aI72
aI112
aI68
aI107
asg10
(lp2659
(lp2660
I78
aF0
aa(lp2661
I153
aF-1
aa(lp2662
I216
aF1
aa(lp2663
I168
aF1
aa(lp2664
I63
aF0.5
aa(lp2665
I143
aF1
aasg12
I13
sa(dp2666
g4
(lp2667
I3
aI0
aI2
aI5
aI4
aI1
asg6
VIs it alive?
p2668
sg8
(lp2669
I116
aI67
aI72
aI112
aI68
aI107
asg10
(lp2670
(lp2671
I78
aF0
aa(lp2672
I153
aF-1
aa(lp2673
I216
aF1
aa(lp2674
I168
aF1
aa(lp2675
I63
aF0.5
aa(lp2676
I143
aF1
aasg12
I13
sa(dp2677
g4
(lp2678
I1
aI4
aI0
aI3
aI2
aI5
asg6
VIs it made of wood
p2679
sg8
(lp2680
I116
aI67
aI72
aI112
aI68
aI107
asg10
(lp2681
(lp2682
I78
aF0
aa(lp2683
I153
aF-1
aa(lp2684
I216
aF1
aa(lp2685
I168
aF1
aa(lp2686
I63
aF0.5
aa(lp2687
I143
aF1
aasg12
I13
sa(dp2688
g4
(lp2689
I0
aI3
aI1
aI2
aI4
aI5
asg6
VIs it usually outside?
p2690
sg8
(lp2691
I116
aI67
aI72
aI112
aI68
aI107
asg10
(lp2692
(lp2693
I78
aF0
aa(lp2694
I153
aF-1
aa(lp2695
I216
aF1
aa(lp2696
I168
aF1
aa(lp2697
I63
aF0.5
aa(lp2698
I143
aF1
aasg12
I13
sa(dp2699
g4
(lp2700
I0
aI1
aI4
aI2
aI3
aI5
asg6
VIS IT BIGGER THAN A SOFA?
p2701
sg8
(lp2702
I116
aI67
aI72
aI112
aI68
aI107
asg10
(lp2703
(lp2704
I78
aF0
aa(lp2705
I153
aF-1
aa(lp2706
I216
aF1
aa(lp2707
I168
aF1
aa(lp2708
I63
aF0.5
aa(lp2709
I143
aF1
aasg12
I13
sa(dp2710
g4
(lp2711
I0
aI4
aI1
aI2
aI3
aI5
asg6
VIs it a building?
p2712
sg8
(lp2713
I116
aI67
aI72
aI112
aI68
aI107
asg10
(lp2714
(lp2715
I78
aF0
aa(lp2716
I153
aF-1
aa(lp2717
I216
aF1
aa(lp2718
I168
aF1
aa(lp2719
I63
aF0.5
aa(lp2720
I143
aF1
aasg12
I13
sa(dp2721
g4
(lp2722
I1
aI4
aI3
aI0
aI2
aI5
asg6
VIs it mechanical?
p2723
sg8
(lp2724
I116
aI67
aI72
aI112
aI68
aI107
asg10
(lp2725
(lp2726
I78
aF0
aa(lp2727
I153
aF-1
aa(lp2728
I216
aF1
aa(lp2729
I168
aF1
aa(lp2730
I63
aF0.5
aa(lp2731
I143
aF1
aasg12
I13
saa.